(dp0
S'class_sl'
p1
(dp2
S'post_stage0'
p3
(I0
I11
tp4
sS'pre_stage0'
p5
(I11
I22
tp6
ssS'class_hierarchy'
p7
(dp8
g3
(lp9
S'post_stage0_subcl'
p10
asg5
(lp11
S'pre_stage0_subcl'
p12
assS'feats'
p13
(dp14
S'Methanosphaera'
p15
(lp16
F0.0
aF0.0
aF0.0
aF0.0
aF0.0
aF0.0
aF0.0
aF0.0
aF0.0
aF0.0
aF0.0
aF0.0
aF0.0
aF0.0
aF0.0
aF0.0
aF0.0
aF0.0
aF0.0
aF0.0
aF0.0
aF0.0
asS'Polaromonas'
p17
(lp18
F0.0
aF0.0
aF0.0
aF0.0
aF0.0
aF0.0
aF0.0
aF0.0
aF0.0
aF0.0
aF0.0
aF0.0
aF0.0
aF0.0
aF0.0
aF0.0
aF0.0
aF0.0
aF0.0
aF0.0
aF0.0
aF0.0
asS'Johnsonella'
p19
(lp20
F0.0
aF0.0
aF0.0
aF4.699999060000192
aF0.0
aF2.7999994400001116
aF0.0
aF0.0
aF0.0
aF0.0
aF2.400000480000101
aF0.0
aF0.0
aF8.600003440001371
aF3.799998100000952
aF0.0
aF0.0
aF0.0
aF0.0
aF12.9000038700012
aF1.5999998400000202
aF3.1999999999999997
asS'Adlercreutzia'
p21
(lp22
F1.5000001500000102
aF42.89999571000041
aF0.0
aF2359.7995280400914
aF9.600001920000379
aF52.39998952000212
aF1023.7998976200095
aF600.9997596000965
aF5.7000005700000616
aF2664.9997335000307
aF934.4001868800373
aF0.0
aF376.0998871700339
aF2.600001040000418
aF502.3997488001263
aF12.000000000000004
aF18.79999060000471
aF219.29999999999998
aF2983.8970161029806
aF107.60003228001
aF1894.19981058002
aF614.0
asS'Flavobacteriales_noname'
p23
(lp24
F0.0
aF0.0
aF0.0
aF0.0
aF0.0
aF0.0
aF0.0
aF0.0
aF0.0
aF0.0
aF0.0
aF0.0
aF0.0
aF0.0
aF0.0
aF0.0
aF0.0
aF1.2
aF0.0
aF0.0
aF0.0
aF0.0
asS'Aggregatibacter'
p25
(lp26
F0.0
aF9.29999907000009
aF8.499999150000072
aF7.299998540000295
aF508.70010174002
aF39.59999208000162
aF15.999998400000193
aF0.0
aF32.80000328000031
aF64.19999358000061
aF3.6000007200001414
aF22.699997730000202
aF3.799998860000339
aF2.600001040000418
aF4.399997800001103
aF5.700000000000001
aF18.399990800004606
aF0.0
aF62.399937600062415
aF14.1000042300013
aF104.69998953000099
aF4.5
asS'Arcanobacterium'
p27
(lp28
F0.0
aF0.0
aF0.0
aF0.0
aF0.0
aF0.0
aF0.0
aF0.0
aF0.0
aF0.0
aF0.0
aF0.0
aF0.0
aF0.0
aF0.0
aF0.0
aF0.0
aF0.0
aF0.0
aF0.0
aF0.0
aF0.0
asS'Eubacterium'
p29
(lp30
F13474.801347480103
aF4982.199501780051
aF7554.499244550063
aF14015.997196800608
aF5438.601087720221
aF8603.998279200343
aF3394.6996605300287
aF5554.897778040894
aF8714.000871400094
aF13962.998603700102
aF254711.1509422301
aF7100.599289940071
aF73947.97781560669
aF248583.89943355977
aF124260.93786953107
aF7047.800000000001
aF2440.698779650611
aF4160.1
aF19898.980101019904
aF43423.2130269639
aF8684.199131580091
aF94221.79999999999
asS'Anaerofustis'
p31
(lp32
F0.0
aF4.99999950000005
aF2.899999710000027
aF0.0
aF0.0
aF0.0
aF0.0
aF8.299996680001337
aF0.0
aF0.0
aF0.0
aF0.0
aF30.199990940002692
aF0.0
aF0.0
aF0.0
aF0.0
aF0.0
aF24.899975100024903
aF28.9000086700026
aF0.0
aF0.0
asS'Gammaproteobacteria_noname'
p33
(lp34
F2.10000021000002
aF0.0
aF0.0
aF0.0
aF0.0
aF0.0
aF0.0
aF0.0
aF0.0
aF0.0
aF0.0
aF0.0
aF0.0
aF0.0
aF0.0
aF0.0
aF0.0
aF0.0
aF0.0
aF0.0
aF0.0
aF0.0
asS'Succinatimonas'
p35
(lp36
F0.0
aF546.999945300005
aF0.0
aF0.0
aF0.0
aF0.0
aF0.0
aF0.0
aF371.5000371500042
aF0.0
aF0.0
aF0.0
aF895.2997314100808
aF0.0
aF0.9999995000002505
aF1126.9
aF0.0
aF1.4
aF14.299985700014302
aF613.0001839000549
aF0.0
aF0.0
asS'Candidatus_Pelagibacter'
p37
(lp38
F0.0
aF0.0
aF0.0
aF0.0
aF0.0
aF0.0
aF0.0
aF0.0
aF0.0
aF0.0
aF0.0
aF0.0
aF0.0
aF0.0
aF0.0
aF0.0
aF0.0
aF0.0
aF0.0
aF0.0
aF0.0
aF0.0
asS'Actinobacteria_noname'
p39
(lp40
F0.0
aF0.0
aF0.0
aF0.0
aF0.0
aF0.0
aF0.0
aF0.0
aF0.0
aF0.0
aF0.0
aF0.0
aF0.0
aF0.0
aF0.0
aF0.0
aF0.0
aF0.0
aF0.0
aF0.0
aF0.0
aF0.0
asS'Ureaplasma'
p41
(lp42
F0.0
aF0.0
aF0.0
aF0.0
aF0.0
aF0.0
aF0.0
aF0.0
aF0.0
aF0.0
aF0.0
aF0.0
aF0.0
aF0.0
aF0.0
aF0.0
aF0.0
aF0.0
aF0.0
aF0.0
aF0.0
aF0.0
asS'Thioalkalimicrobium'
p43
(lp44
F0.0
aF0.0
aF0.0
aF0.0
aF0.0
aF0.0
aF0.0
aF0.0
aF0.0
aF0.0
aF0.0
aF0.0
aF0.0
aF0.0
aF0.0
aF0.0
aF0.0
aF0.0
aF0.0
aF0.0
aF0.0
aF0.0
asS'Kosakonia'
p45
(lp46
F0.0
aF0.0
aF0.0
aF0.0
aF0.0
aF0.0
aF0.0
aF0.0
aF0.0
aF0.0
aF0.0
aF0.0
aF0.0
aF0.0
aF0.0
aF0.0
aF0.0
aF0.0
aF0.0
aF0.0
aF0.0
aF0.0
asS'Cryptobacterium'
p47
(lp48
F0.0
aF1.39999986000001
aF1.199999880000009
aF10.499997900000407
aF75.100015020003
aF51.699989660002124
aF9.099999090000086
aF6.699997320001075
aF4.600000460000052
aF73.29999267000072
aF0.0
aF0.0
aF2.1999993400001996
aF0.0
aF10.099994950002507
aF0.0
aF30.79998460000771
aF11.7
aF152.199847800152
aF0.0
aF2.8999997100000297
aF0.0
asS'Candida'
p49
(lp50
F0.0
aF0.0
aF0.0
aF0.0
aF0.0
aF0.0
aF0.0
aF0.0
aF0.0
aF0.0
aF0.0
aF8.89999911000009
aF0.0
aF0.0
aF0.0
aF3.8000000000000007
aF0.0
aF0.0
aF0.0
aF0.0
aF0.0
aF0.0
asS'Flavonifractor'
p51
(lp52
F383.40003834000413
aF1242.79987572001
aF1184.899881510009
aF1110.7997778400406
aF27432.5054865011
aF846.8998306200344
aF2025.4997974500193
aF616.9997532000995
aF203.10002031000207
aF4885.199511480051
aF346.60006932001414
aF731.0999268900072
aF536.499839050048
aF1273.3005093201987
aF947.5995262002375
aF263.50000000000006
aF10.299994850002605
aF2365.7999999999997
aF1637.7983622016402
aF1264.20037926011
aF5165.59948344005
aF58.6
asS'Enterobacteriaceae_noname'
p53
(lp54
F2.9000002900000306
aF302.29996977000303
aF3.199999680000027
aF0.0
aF0.0
aF0.0
aF0.7999999200000076
aF0.0
aF0.0
aF0.0
aF1.5000003000000606
aF0.0
aF0.0
aF0.0
aF2.3999988000006014
aF4.500000000000001
aF0.0
aF0.0
aF0.0
aF0.0
aF0.0
aF0.0
asS'Marinomonas'
p55
(lp56
F0.0
aF0.0
aF0.0
aF0.0
aF0.0
aF0.0
aF0.0
aF0.0
aF0.0
aF0.0
aF0.0
aF0.0
aF0.0
aF0.0
aF0.0
aF0.0
aF0.0
aF0.0
aF0.0
aF0.0
aF0.0
aF0.0
asS'Desulfobulbus'
p57
(lp58
F0.0
aF0.0
aF0.0
aF0.0
aF0.0
aF32.09999358000132
aF0.0
aF0.0
aF0.0
aF0.0
aF0.0
aF0.0
aF3.5999989200003193
aF0.0
aF0.0
aF0.0
aF0.0
aF0.0
aF0.0
aF0.0
aF0.0
aF0.0
asS'Afipia'
p59
(lp60
F0.0
aF0.0
aF0.0
aF0.0
aF0.0
aF0.0
aF0.0
aF0.0
aF0.0
aF0.0
aF0.0
aF0.0
aF0.0
aF0.0
aF0.0
aF0.0
aF0.0
aF1.7
aF0.0
aF0.0
aF0.0
aF0.0
asS'Thermodesulfatator'
p61
(lp62
F0.0
aF0.0
aF0.0
aF0.0
aF0.0
aF0.0
aF0.0
aF0.0
aF0.0
aF0.0
aF0.0
aF0.0
aF0.0
aF0.0
aF0.0
aF0.0
aF0.0
aF0.0
aF0.0
aF0.0
aF0.0
aF0.0
asS'Eggerthella'
p63
(lp64
F492.0000492000051
aF46.4999953500005
aF1483.5998516400086
aF581.1998837600233
aF121.10002422000501
aF512.0998975800212
aF6895.199310480067
aF200.19991992003216
aF6.200000620000062
aF587.7999412200061
aF153.00003060000603
aF1072.39989276001
aF230.09993097002095
aF2646.9010587604175
aF40.09997995001002
aF4212.700000000001
aF44.29997785001111
aF1266.3
aF766.1992338007661
aF38.7000116100035
aF2046.2997953700199
aF418.8
asS'Gloeobacter'
p65
(lp66
F0.0
aF0.0
aF0.0
aF0.0
aF0.0
aF0.0
aF0.0
aF0.0
aF0.0
aF0.0
aF0.0
aF0.0
aF1.9999994000001793
aF0.0
aF0.0
aF0.0
aF0.0
aF0.0
aF0.0
aF0.0
aF0.0
aF0.0
asS'Slackia'
p67
(lp68
F4.300000430000042
aF11.699998830000101
aF12.499998750000088
aF18.399996320000714
aF105.000021000004
aF40.89999182000162
aF56.69999433000057
aF0.0
aF4.9000004900000524
aF87.69999123000092
aF6.500001300000262
aF12.299998770000101
aF13.399995980001195
aF15.200006080002387
aF18.39999080000461
aF79.20000000000002
aF39.59998020000992
aF45.4
aF21.999978000022
aF7.500002250000669
aF114.199988580001
aF16.799999999999997
asS'Rothia'
p69
(lp70
F52.000005200000516
aF54.39999456000051
aF271.59997284000275
aF2178.9995642000913
aF12668.2025336405
aF432.2999135400172
aF229.4999770500019
aF3.2999986800005328
aF432.5000432500041
aF947.3999052600093
aF47.10000942000192
aF1496.49985035001
aF13.799995860001196
aF153.90006156002485
aF77.59996120001945
aF383.00000000000006
aF1386.2993068503504
aF100.1
aF339.79966020034004
aF578.900173670052
aF466.899953310005
aF82.10000000000001
asS'Heliobacterium'
p71
(lp72
F0.0
aF0.0
aF0.0
aF0.0
aF0.0
aF0.0
aF0.0
aF0.0
aF0.0
aF0.0
aF0.0
aF0.0
aF0.0
aF0.0
aF0.0
aF0.0
aF0.0
aF0.0
aF0.0
aF0.0
aF0.0
aF0.0
asS'Thiomonas'
p73
(lp74
F0.0
aF0.0
aF0.0
aF0.0
aF0.0
aF0.0
aF0.0
aF0.0
aF0.0
aF0.0
aF0.0
aF0.0
aF0.0
aF0.0
aF0.0
aF0.0
aF0.0
aF0.0
aF0.0
aF0.0
aF0.0
aF0.0
asS'Bergeyella'
p75
(lp76
F0.0
aF0.0
aF0.0
aF0.0
aF0.0
aF0.0
aF0.0
aF0.0
aF0.0
aF0.0
aF0.0
aF0.0
aF0.0
aF0.0
aF0.0
aF0.0
aF0.0
aF0.0
aF0.0
aF0.0
aF0.0
aF0.0
asS'Actinobacillus'
p77
(lp78
F0.0
aF0.0
aF0.0
aF0.0
aF224.100044820009
aF47.69999046000193
aF0.0
aF0.0
aF0.0
aF90.39999096000092
aF0.0
aF0.0
aF0.0
aF0.0
aF15.899992050004007
aF30.900000000000006
aF0.0
aF0.0
aF87.1999128000872
aF0.0
aF54.4999945500005
aF0.0
asS'Akkermansia'
p79
(lp80
F7.800000780000081
aF136.599986340001
aF7.3999992600000635
aF18688.99626220081
aF0.0
aF0.0
aF1717.6998282300192
aF21200.891519643417
aF186.30001863000206
aF0.0
aF999.3001998600404
aF2.9999997000000302
aF199.19994024001795
aF1155.500462200179
aF26.899986550006716
aF7306.700000000002
aF1.7999991000004507
aF160.5
aF3737.7962622037403
aF687.9002063700619
aF0.0
aF3.9
asS'Pseudoxanthomonas'
p81
(lp82
F0.0
aF0.0
aF0.0
aF0.0
aF0.0
aF0.0
aF0.0
aF0.0
aF0.0
aF0.0
aF0.0
aF0.0
aF0.0
aF0.0
aF0.0
aF0.0
aF0.0
aF0.0
aF0.0
aF0.0
aF0.0
aF0.0
asS'Parvimonas'
p83
(lp84
F3.2000003200000307
aF15.599998440000201
aF7.3999992600000635
aF0.0
aF137.900027580006
aF628.4998743000252
aF11.699998830000094
aF0.0
aF0.0
aF132.29998677000103
aF0.0
aF65.79999342000072
aF37.19998884000329
aF75.50003020001203
aF0.0
aF299.00000000000006
aF215.89989205005406
aF38.800000000000004
aF17.8999821000179
aF13.5000040500012
aF97.199990280001
aF123.7
asS'Eikenella'
p85
(lp86
F0.0
aF0.0
aF0.0
aF0.0
aF19.600003920000802
aF0.0
aF2.799999720000029
aF0.0
aF17.300001730000208
aF0.0
aF0.0
aF0.0
aF0.0
aF0.0
aF0.0
aF14.900000000000004
aF0.0
aF0.0
aF0.0
aF7.7000023100006905
aF0.0
aF0.0
asS'Malassezia'
p87
(lp88
F0.0
aF0.0
aF0.0
aF0.0
aF0.0
aF0.0
aF0.0
aF0.0
aF0.0
aF0.0
aF0.0
aF0.0
aF0.0
aF0.0
aF1.1999994000003007
aF0.0
aF0.0
aF0.0
aF0.0
aF0.0
aF0.0
aF0.0
asS'Mogibacterium'
p89
(lp90
F0.0
aF0.0
aF0.0
aF0.0
aF0.0
aF0.0
aF0.0
aF0.0
aF0.0
aF0.0
aF0.0
aF0.0
aF0.0
aF0.0
aF0.0
aF0.0
aF0.0
aF0.0
aF0.0
aF0.0
aF0.0
aF0.0
asS'Bordetella'
p91
(lp92
F0.0
aF0.0
aF0.0
aF0.0
aF0.0
aF0.0
aF0.0
aF0.0
aF0.0
aF0.0
aF0.0
aF0.0
aF0.0
aF18.800007520002985
aF0.0
aF45.80000000000001
aF0.0
aF0.0
aF0.0
aF0.0
aF0.0
aF0.0
asS'Lymphocryptovirus'
p93
(lp94
F0.0
aF0.0
aF0.0
aF0.0
aF0.0
aF183.4999633000071
aF0.0
aF0.0
aF0.0
aF0.0
aF0.0
aF0.0
aF0.0
aF0.0
aF0.0
aF0.0
aF0.0
aF0.0
aF0.0
aF0.0
aF0.0
aF0.0
asS'Flavobacterium'
p95
(lp96
F0.0
aF0.0
aF0.0
aF0.0
aF0.0
aF0.0
aF0.0
aF0.0
aF0.0
aF0.0
aF0.0
aF0.0
aF0.0
aF0.0
aF0.0
aF1.9000000000000004
aF0.0
aF0.0
aF0.0
aF0.0
aF0.0
aF0.0
asS'Capnocytophaga'
p97
(lp98
F0.0
aF0.0
aF0.0
aF0.0
aF6.20000124000025
aF0.0
aF0.0
aF0.0
aF38.100003810000416
aF0.0
aF0.0
aF0.0
aF0.0
aF0.0
aF0.0
aF0.0
aF0.0
aF0.0
aF0.0
aF17.2000051600015
aF0.0
aF0.0
asS'Klebsiella'
p99
(lp100
F99890.30998903103
aF161.29998387000202
aF1.7999998200000182
aF1472.199705560061
aF0.0
aF226.89995462000908
aF2.8999997100000283
aF261.4998954000422
aF11.100001110000104
aF21.499997850000206
aF205.80004116000808
aF107525.48924745101
aF18602.194419341697
aF5.600002240000895
aF582.8997085501463
aF2621.9000000000005
aF25677.48716125641
aF79.7
aF12.8999871000129
aF52.9000158700048
aF57.2999942700006
aF288.70000000000005
asS'Rhodospirillales_noname'
p101
(lp102
F0.0
aF0.0
aF0.0
aF0.0
aF0.0
aF0.0
aF0.0
aF0.0
aF0.0
aF0.0
aF0.0
aF0.0
aF0.0
aF0.0
aF0.0
aF0.0
aF0.0
aF0.0
aF0.0
aF0.0
aF0.0
aF0.0
asS'Candidatus_Portiera'
p103
(lp104
F0.0
aF0.0
aF0.0
aF0.0
aF0.0
aF0.0
aF0.0
aF0.0
aF0.0
aF0.0
aF0.0
aF0.0
aF0.0
aF0.0
aF0.0
aF0.0
aF0.0
aF0.0
aF0.0
aF0.0
aF0.0
aF0.0
asS'Mesorhizobium'
p105
(lp106
F0.0
aF0.0
aF0.0
aF0.0
aF0.0
aF0.0
aF0.0
aF0.0
aF0.0
aF0.0
aF0.0
aF0.0
aF0.0
aF0.0
aF0.0
aF0.0
aF0.0
aF0.0
aF0.0
aF0.0
aF0.0
aF0.0
asS'Pedobacter'
p107
(lp108
F0.0
aF0.0
aF0.0
aF0.0
aF0.0
aF0.0
aF0.0
aF0.0
aF0.0
aF0.0
aF0.0
aF0.0
aF0.0
aF0.0
aF0.0
aF0.0
aF0.0
aF0.0
aF0.0
aF0.0
aF0.0
aF0.0
asS'Clavispora'
p109
(lp110
F0.0
aF0.0
aF0.0
aF0.0
aF0.0
aF0.0
aF0.0
aF0.0
aF0.0
aF0.0
aF0.0
aF0.0
aF0.0
aF0.0
aF0.0
aF0.0
aF0.0
aF0.0
aF0.0
aF0.0
aF0.0
aF0.0
asS'Chlorobium'
p111
(lp112
F0.0
aF0.0
aF0.0
aF0.0
aF0.0
aF0.0
aF0.0
aF0.0
aF0.0
aF0.0
aF0.0
aF0.0
aF0.0
aF0.0
aF0.0
aF0.0
aF0.0
aF0.0
aF0.0
aF0.0
aF0.0
aF0.0
asS'Barnesiella'
p113
(lp114
F5.000000500000051
aF66288.5933711407
aF32147.296785270268
aF432.19991356001725
aF526.300105260021
aF343.6999312600142
aF0.0
aF48399.48064020774
aF492.8000492800052
aF0.0
aF2.2000004400000908
aF556.099944390006
aF31334.490599652792
aF16960.406784162686
aF775.9996120001945
aF8422.900000000003
aF69.49996525001742
aF0.0
aF10192.2898077102
aF166.300049890015
aF0.0
aF0.0
asS'Candidatus_Azobacteroides'
p115
(lp116
F0.0
aF0.0
aF0.0
aF0.0
aF0.0
aF0.0
aF0.0
aF0.0
aF0.0
aF0.0
aF0.0
aF0.0
aF0.0
aF0.0
aF0.0
aF0.0
aF0.0
aF0.0
aF0.0
aF0.0
aF0.0
aF0.0
asS'Turicibacter'
p117
(lp118
F0.0
aF0.0
aF15.099998490000186
aF0.0
aF2884.60057692012
aF40463.99190720162
aF0.0
aF30.099987960004825
aF0.0
aF0.0
aF0.0
aF3121.2996878700305
aF0.0
aF22.900009160003677
aF0.0
aF0.0
aF1025.7994871002604
aF0.0
aF19.899980100019903
aF292.500087750026
aF0.0
aF7.4
asS'Viunalikevirus'
p119
(lp120
F0.0
aF0.0
aF0.0
aF0.0
aF0.0
aF0.0
aF0.0
aF0.0
aF0.0
aF0.0
aF0.0
aF0.0
aF0.0
aF0.0
aF0.0
aF0.0
aF0.0
aF0.0
aF0.0
aF0.0
aF0.0
aF0.0
asS'Escherichia'
p121
(lp122
F6145.000614500061
aF111496.688850331
aF0.0
aF8681.198263760354
aF262065.45241308998
aF17825.196434960708
aF1234.5998765400093
aF241.8999032400392
aF281.7000281700031
aF3553.599644640041
aF2240.1004480200904
aF4.299999570000041
aF535.2998394100479
aF85.30003412001352
aF112.99994350002807
aF32719.60000000001
aF3501.498249250881
aF28.3
aF37.299962700037305
aF39.4000118200035
aF1239.59987604001
aF4086.7000000000003
asS'Echinicola'
p123
(lp124
F0.0
aF0.0
aF0.0
aF0.0
aF0.0
aF0.0
aF0.0
aF0.0
aF0.0
aF0.0
aF0.0
aF0.0
aF0.0
aF0.0
aF0.0
aF0.0
aF0.0
aF0.0
aF0.0
aF0.0
aF0.0
aF0.0
asS'Wolbachia'
p125
(lp126
F0.0
aF0.0
aF0.0
aF0.0
aF0.0
aF0.0
aF0.0
aF0.0
aF0.0
aF0.0
aF0.0
aF0.0
aF0.0
aF0.0
aF0.0
aF0.0
aF0.0
aF0.0
aF0.0
aF0.0
aF0.0
aF0.0
asS'Butyricicoccus'
p127
(lp128
F3.1000003100000306
aF50.19999498000051
aF128.6999871300009
aF21.499995700000913
aF25.300005060001002
aF20.99999580000081
aF33.29999667000029
aF38.29998468000613
aF7.400000740000073
aF20.399997960000203
aF45.90000918000182
aF0.0
aF16.999994900001496
aF51.40002056000815
aF5.3999973000013535
aF3.1000000000000005
aF6.199996900001552
aF23.900000000000002
aF31.499968500031503
aF262.900078870024
aF3.69999963000004
aF7.300000000000001
asS'Thermincola'
p129
(lp130
F0.0
aF0.0
aF0.0
aF0.0
aF0.0
aF0.0
aF0.0
aF0.0
aF0.0
aF0.0
aF0.0
aF0.0
aF0.0
aF0.0
aF0.0
aF0.0
aF0.0
aF0.0
aF0.0
aF0.0
aF0.0
aF0.0
asS'Onygenales_noname_unclassified'
p131
(lp132
F0.0
aF0.0
aF0.0
aF0.0
aF0.0
aF0.0
aF0.0
aF0.0
aF0.0
aF0.0
aF0.0
aF0.0
aF0.0
aF0.0
aF0.0
aF0.0
aF0.0
aF0.0
aF0.0
aF0.0
aF0.0
aF0.0
asS'Sutterella'
p133
(lp134
F38378.20383782041
aF853.0999146900082
aF37026.89629731037
aF5.9999988000002435
aF3.80000076000015
aF10631.597873680405
aF465.3999534600048
aF0.0
aF22875.80228758021
aF0.0
aF0.0
aF15735.798426420202
aF484.8998545300439
aF38958.01558320616
aF14.59999270000361
aF22845.400000000005
aF14506.992746503605
aF13.6
aF0.0
aF17492.7052478116
aF0.0
aF2.8
asS'Lachnoanaerobaculum'
p135
(lp136
F0.0
aF0.0
aF0.0
aF0.0
aF195.200039040008
aF0.0
aF3.1999996800000283
aF0.0
aF3.300000330000031
aF60.699993930000616
aF0.0
aF13.799998620000101
aF0.0
aF13.900005560002187
aF0.0
aF12.700000000000003
aF0.0
aF1.5999999999999999
aF21.7999782000218
aF4.90000147000044
aF48.799995120000496
aF0.0
asS'Enhydrobacter'
p137
(lp138
F0.0
aF0.0
aF0.0
aF0.0
aF0.0
aF3.3999993200001413
aF0.0
aF0.0
aF0.0
aF8.599999140000092
aF0.0
aF0.0
aF0.0
aF4.700001880000746
aF0.0
aF0.0
aF0.0
aF0.0
aF0.0
aF0.0
aF0.0
aF0.0
asS'Lactococcus'
p139
(lp140
F0.0
aF10.8999989100001
aF0.0
aF209.19995816000812
aF204.500040900008
aF36.69999266000152
aF19.99999800000019
aF0.0
aF0.0
aF0.0
aF0.0
aF0.0
aF3.3999989800003094
aF0.0
aF4024.1979879010128
aF214.40000000000006
aF170.69991465004307
aF0.0
aF2.3999976000024006
aF0.0
aF505.59994944000505
aF0.0
asS'Curtovirus'
p141
(lp142
F0.0
aF0.0
aF0.0
aF0.0
aF0.0
aF0.0
aF0.0
aF0.0
aF0.0
aF0.0
aF0.0
aF0.0
aF0.0
aF0.0
aF0.0
aF0.0
aF0.0
aF0.0
aF0.0
aF0.0
aF0.0
aF0.0
asS'Salinispora'
p143
(lp144
F0.0
aF0.0
aF0.0
aF0.0
aF0.0
aF0.0
aF0.0
aF0.0
aF0.0
aF0.0
aF0.0
aF0.0
aF0.0
aF0.0
aF0.0
aF0.0
aF0.0
aF0.0
aF0.0
aF0.0
aF0.0
aF0.0
asS'Saccharomycetaceae_unclassified'
p145
(lp146
F0.0
aF0.0
aF0.0
aF0.0
aF0.0
aF0.0
aF0.0
aF0.0
aF0.0
aF0.0
aF0.0
aF0.0
aF0.0
aF0.0
aF0.0
aF102.80000000000003
aF0.0
aF0.0
aF0.0
aF0.0
aF0.0
aF0.0
asS'Megasphaera'
p147
(lp148
F6.100000610000061
aF10.799998920000101
aF24.69999753000018
aF39.19999216000162
aF1665.10033302007
aF0.0
aF26.49999735000029
aF512.0997951600824
aF3022.6003022600307
aF3308.499669150031
aF21.900004380000908
aF6283.399371660061
aF0.0
aF41.300016520006565
aF52.79997360001323
aF192.90000000000003
aF24.19998790000601
aF4.7
aF1431.7985682014303
aF1399.20041976013
aF2030.9997969000199
aF89.1
asS'Bulleidia'
p149
(lp150
F0.0
aF25.899997410000303
aF9.699999030000091
aF0.0
aF0.0
aF0.0
aF5.399999460000047
aF0.0
aF0.0
aF22.899997710000207
aF1.3000002600000504
aF0.0
aF75.39997738000679
aF33.70001348000537
aF0.0
aF0.0
aF0.0
aF9.799999999999999
aF3.6999963000037006
aF12.5000037500011
aF31.0999968900003
aF35.7
asS'Rahnella'
p151
(lp152
F0.0
aF0.0
aF0.0
aF0.0
aF400.500080100016
aF0.0
aF0.0
aF0.0
aF0.0
aF0.0
aF0.0
aF0.0
aF0.0
aF0.0
aF0.0
aF107.90000000000002
aF0.0
aF0.0
aF0.0
aF0.0
aF0.0
aF0.0
asS'Agrococcus'
p153
(lp154
F0.0
aF0.0
aF0.0
aF0.0
aF0.0
aF0.0
aF0.0
aF0.0
aF0.0
aF0.0
aF0.0
aF0.0
aF0.0
aF0.0
aF0.0
aF0.0
aF0.0
aF0.0
aF0.0
aF0.0
aF0.0
aF0.0
asS'Enterocytozoon'
p155
(lp156
F0.0
aF0.0
aF0.0
aF0.0
aF0.0
aF0.0
aF0.0
aF0.0
aF10.500001050000103
aF0.0
aF0.0
aF14.699998530000101
aF7.099997870000639
aF0.0
aF1.0999994500002805
aF0.0
aF0.0
aF0.0
aF0.0
aF13.5000040500012
aF0.0
aF0.0
asS'Gordonia'
p157
(lp158
F0.0
aF0.0
aF0.0
aF0.0
aF0.0
aF3.5999992800001417
aF0.0
aF0.0
aF0.0
aF0.0
aF0.0
aF0.0
aF0.0
aF0.0
aF0.0
aF0.0
aF0.0
aF0.0
aF0.0
aF1.60000048000014
aF0.0
aF0.0
asS'Listeria'
p159
(lp160
F0.0
aF0.0
aF0.0
aF0.0
aF0.0
aF0.0
aF0.0
aF0.0
aF0.0
aF0.0
aF0.0
aF0.0
aF0.0
aF26.100010440004173
aF0.0
aF0.0
aF0.0
aF0.0
aF0.0
aF0.0
aF0.0
aF0.0
asS'Sphingomonas'
p161
(lp162
F0.0
aF0.0
aF0.0
aF0.0
aF0.0
aF0.0
aF0.0
aF0.0
aF0.0
aF0.0
aF0.0
aF0.0
aF0.0
aF0.0
aF0.0
aF0.0
aF0.0
aF0.0
aF0.0
aF0.0
aF0.0
aF0.0
asS'Ruania'
p163
(lp164
F0.0
aF0.0
aF0.0
aF0.0
aF0.0
aF0.0
aF0.0
aF0.0
aF0.0
aF0.0
aF0.0
aF0.0
aF0.0
aF0.0
aF0.0
aF0.0
aF0.0
aF0.0
aF0.0
aF0.0
aF0.0
aF0.0
asS'Brachybacterium'
p165
(lp166
F0.0
aF0.0
aF0.0
aF0.0
aF0.0
aF0.0
aF0.0
aF0.0
aF0.0
aF0.0
aF0.0
aF0.0
aF3.799998860000339
aF0.0
aF0.0
aF0.0
aF0.0
aF0.0
aF0.0
aF0.0
aF0.0
aF0.0
asS'Roseolovirus'
p167
(lp168
F0.0
aF0.0
aF0.0
aF0.0
aF94.5000189000038
aF0.0
aF0.0
aF0.0
aF0.0
aF0.0
aF0.0
aF0.0
aF0.0
aF0.0
aF0.0
aF0.0
aF0.0
aF0.0
aF0.0
aF0.0
aF0.0
aF0.0
asS'Anaerostipes'
p169
(lp170
F426.00004260000406
aF310.79996892000304
aF1508.7998491200087
aF2344.999531000092
aF97.3000194600039
aF1776.9996446000707
aF11.299998870000094
aF1641.8993432402615
aF50.20000502000052
aF6666.2993333700715
aF2177.3004354600907
aF2136.9997863000203
aF9982.997005100897
aF1050.9004203601692
aF763.1996184001914
aF2240.2000000000003
aF119.69994015003005
aF100.9
aF5114.594885405111
aF572.800171840051
aF13681.4986318501
aF3437.8999999999996
asS'Leuconostoc'
p171
(lp172
F0.0
aF0.0
aF0.0
aF11.399997720000506
aF30.7000061400012
aF0.0
aF27.199997280000286
aF8.599996560001388
aF0.0
aF0.0
aF0.0
aF0.0
aF779.6997660900698
aF0.0
aF0.0
aF0.0
aF0.0
aF0.0
aF0.0
aF0.0
aF4.19999958000004
aF2.5
asS'Desulfocapsa'
p173
(lp174
F0.0
aF0.0
aF0.0
aF0.0
aF0.0
aF0.0
aF0.0
aF0.0
aF0.0
aF0.0
aF0.0
aF0.0
aF0.0
aF0.0
aF0.0
aF0.0
aF0.0
aF0.0
aF0.0
aF0.0
aF0.0
aF0.0
asS'P2likeviruses'
p175
(lp176
F0.0
aF0.0
aF0.0
aF0.0
aF0.0
aF0.0
aF0.0
aF0.0
aF0.0
aF0.0
aF0.0
aF0.0
aF0.0
aF0.0
aF0.0
aF0.0
aF0.0
aF0.0
aF0.0
aF0.0
aF0.0
aF0.0
asS'Bacteroides'
p177
(lp178
F277634.72776347306
aF469069.15309308504
aF358350.16416498367
aF74293.18514136305
aF241554.74831095
aF55900.488819902224
aF362911.2637088738
aF476945.90922163636
aF204521.02045210206
aF394451.2605548741
aF228264.54565290906
aF119402.38805976101
aF239137.52825874192
aF341048.43641937466
aF42227.378886310624
aF243252.70000000004
aF54878.27256086372
aF235455.1
aF221299.278700721
aF139564.54186936302
aF196837.58031624198
aF274653.3
asS'Thermosipho'
p179
(lp180
F0.0
aF0.0
aF0.0
aF0.0
aF0.0
aF0.0
aF0.0
aF0.0
aF0.0
aF0.0
aF0.0
aF0.0
aF0.0
aF0.0
aF0.0
aF0.0
aF0.0
aF0.0
aF0.0
aF0.0
aF0.0
aF0.0
asS'Serinicoccus'
p181
(lp182
F0.0
aF0.0
aF0.0
aF0.0
aF0.0
aF0.0
aF0.0
aF0.0
aF0.0
aF0.0
aF0.0
aF0.0
aF0.0
aF0.0
aF0.0
aF0.0
aF0.0
aF0.0
aF0.0
aF0.0
aF0.0
aF0.0
asS'Aspergillus'
p183
(lp184
F0.0
aF0.0
aF0.0
aF0.0
aF0.0
aF0.0
aF0.0
aF0.0
aF0.0
aF0.0
aF0.0
aF0.0
aF0.0
aF0.0
aF0.0
aF0.0
aF0.0
aF0.0
aF0.0
aF0.0
aF0.0
aF0.0
asS'Streptococcus'
p185
(lp186
F3108.9003108900306
aF2232.1997767800203
aF4176.699582330036
aF132036.97359260506
aF43817.70876354181
aF236380.3527239291
aF12307.398769260095
aF2263.499094600362
aF9539.800953980104
aF67779.29322207072
aF1012.7002025400403
aF98032.99019670101
aF32111.890366432894
aF4856.101942440775
aF45638.47718076143
aF6122.800000000002
aF39162.28041885982
aF3872.0
aF41851.5581484418
aF18157.9054473716
aF61155.8938844106
aF3734.2999999999997
asS'Thermotoga'
p187
(lp188
F0.0
aF0.0
aF0.0
aF0.0
aF0.0
aF0.0
aF0.0
aF0.0
aF0.0
aF0.0
aF0.0
aF0.0
aF0.0
aF0.0
aF0.0
aF0.0
aF0.0
aF0.0
aF0.0
aF0.0
aF0.0
aF0.0
asS'Yersinia'
p189
(lp190
F0.0
aF14.199998580000102
aF0.0
aF0.0
aF0.0
aF0.0
aF0.0
aF0.0
aF0.0
aF0.0
aF4.000000800000161
aF106.39998936000102
aF4.0999987700003695
aF0.0
aF0.0
aF26.200000000000006
aF1.4999992500003705
aF0.0
aF0.0
aF0.0
aF0.0
aF9.3
asS'Psychromonas'
p191
(lp192
F0.0
aF0.0
aF0.0
aF0.0
aF0.0
aF0.0
aF0.0
aF0.0
aF0.0
aF0.0
aF0.0
aF0.0
aF0.0
aF0.0
aF0.0
aF0.0
aF0.0
aF0.0
aF0.0
aF0.0
aF0.0
aF0.0
asS'Eremococcus'
p193
(lp194
F0.0
aF0.0
aF0.0
aF0.0
aF0.0
aF0.0
aF0.0
aF0.0
aF0.0
aF0.0
aF0.0
aF0.0
aF0.0
aF0.0
aF0.0
aF0.0
aF0.0
aF0.0
aF0.0
aF0.0
aF0.0
aF0.0
asS'P22likevirus'
p195
(lp196
F0.0
aF0.0
aF0.0
aF0.0
aF0.0
aF0.0
aF0.0
aF0.0
aF0.0
aF0.0
aF0.0
aF0.0
aF0.0
aF0.0
aF0.0
aF0.0
aF0.0
aF0.0
aF0.0
aF0.0
aF0.0
aF0.0
asS'Lactobacillus'
p197
(lp198
F15305.101530510203
aF9.099999090000091
aF33.39999666000027
aF6560.898687820264
aF0.0
aF50101.18997976202
aF32.79999672000029
aF37.199985120006026
aF101.20001012000102
aF125.79998742000103
aF24.300004860001007
aF9319.799068020091
aF4837.398548780439
aF18.200007280002882
aF3988.298005851002
aF138.40000000000003
aF157259.72137013904
aF0.0
aF1233.19876680123
aF199.200059760018
aF8278.79917212008
aF678.4
asS'Coxiella'
p199
(lp200
F0.0
aF0.0
aF0.0
aF0.0
aF0.0
aF0.0
aF0.0
aF0.0
aF0.0
aF0.0
aF0.0
aF0.0
aF0.0
aF0.0
aF0.0
aF0.0
aF0.0
aF0.0
aF0.0
aF0.0
aF0.0
aF0.0
asS'Haloarcula'
p201
(lp202
F0.0
aF0.0
aF0.0
aF0.0
aF0.0
aF0.0
aF0.0
aF0.0
aF0.0
aF0.0
aF0.0
aF0.0
aF0.0
aF0.0
aF0.0
aF0.0
aF0.0
aF0.0
aF0.0
aF0.0
aF0.0
aF0.0
asS'Pseudoalteromonadaceae_unclassified'
p203
(lp204
F0.0
aF0.0
aF0.0
aF0.0
aF0.0
aF0.0
aF0.0
aF0.0
aF0.0
aF0.0
aF0.0
aF0.0
aF0.0
aF0.0
aF0.0
aF0.0
aF0.0
aF0.0
aF0.0
aF0.0
aF0.0
aF0.0
asS'Meyerozyma'
p205
(lp206
F0.0
aF0.0
aF0.0
aF0.0
aF0.0
aF0.0
aF0.0
aF0.0
aF0.0
aF0.0
aF0.0
aF0.0
aF0.0
aF0.0
aF0.0
aF0.0
aF0.0
aF0.0
aF0.0
aF0.0
aF0.0
aF0.0
asS'Histophilus'
p207
(lp208
F0.0
aF0.0
aF0.0
aF0.0
aF0.0
aF0.0
aF0.0
aF0.0
aF0.0
aF0.0
aF0.0
aF0.0
aF0.0
aF0.0
aF0.0
aF0.0
aF0.0
aF0.0
aF0.0
aF0.0
aF0.0
aF0.0
asS'Rhodococcus'
p209
(lp210
F0.0
aF0.0
aF0.0
aF0.0
aF0.0
aF0.0
aF0.0
aF0.0
aF0.0
aF0.0
aF0.0
aF0.0
aF0.0
aF0.0
aF0.0
aF0.0
aF0.0
aF0.0
aF0.0
aF0.0
aF0.0
aF0.0
asS'Pseudoflavonifractor'
p211
(lp212
F20.200002020000206
aF1295.7998704200102
aF43.69999563000036
aF189.4999621000081
aF110.500022100004
aF109.99997800000405
aF417.89995821000383
aF738.6997045201186
aF428.20004282000417
aF214.89997851000206
aF1157.0002314000503
aF216.899978310002
aF1701.7994894601497
aF188.70007548002982
aF205.2998973500511
aF338.00000000000006
aF91.89995405002304
aF416.4
aF351.49964850035104
aF822.300246690074
aF73.49999265000069
aF377.5
asS'Peptoniphilus'
p213
(lp214
F19.800001980000204
aF3.5999996400000405
aF3.399999660000027
aF0.0
aF0.0
aF0.0
aF4.9999995000000474
aF0.0
aF0.0
aF0.0
aF0.0
aF19.099998090000202
aF27.899991630002493
aF2.100000840000338
aF0.0
aF3.900000000000001
aF0.0
aF6.3
aF8.999991000009
aF0.0
aF0.0
aF0.0
asS'Mucispirillum'
p215
(lp216
F0.0
aF0.0
aF0.0
aF0.0
aF0.0
aF0.0
aF0.0
aF0.0
aF0.0
aF0.0
aF0.0
aF0.0
aF0.0
aF0.0
aF0.0
aF0.0
aF0.0
aF0.0
aF0.0
aF0.0
aF0.0
aF0.0
asS'Abiotrophia'
p217
(lp218
F0.0
aF7.499999250000081
aF15.299998470000185
aF0.0
aF0.0
aF0.0
aF48.799995120000474
aF3.6999985200005927
aF48.800004880000515
aF355.7999644200041
aF0.0
aF0.0
aF0.0
aF0.8000003200001272
aF0.0
aF157.40000000000003
aF0.0
aF59.3
aF5.0999949000051
aF105.10003153000899
aF275.49997245000304
aF7.8
asS'Clostridiales_Family_XI_Incertae_Sedis_noname'
p219
(lp220
F0.0
aF0.0
aF0.0
aF0.0
aF0.0
aF0.0
aF0.0
aF0.0
aF0.0
aF0.0
aF0.0
aF0.0
aF0.0
aF0.0
aF0.0
aF0.0
aF0.0
aF0.0
aF0.0
aF0.0
aF0.0
aF0.0
asS'Thermosinus'
p221
(lp222
F0.0
aF0.0
aF0.0
aF0.0
aF0.0
aF0.0
aF0.0
aF0.0
aF0.0
aF0.0
aF0.0
aF0.0
aF0.0
aF0.0
aF0.0
aF0.0
aF0.0
aF0.0
aF0.0
aF0.0
aF0.0
aF0.0
asS'Singularimonas'
p223
(lp224
F0.0
aF0.0
aF0.0
aF0.0
aF0.0
aF0.0
aF0.0
aF0.0
aF0.0
aF0.0
aF0.0
aF0.0
aF0.0
aF0.0
aF0.0
aF0.0
aF0.0
aF0.0
aF0.0
aF0.0
aF0.0
aF0.0
asS'Spirosoma'
p225
(lp226
F0.0
aF0.0
aF0.0
aF0.0
aF0.0
aF0.0
aF0.0
aF0.0
aF0.0
aF0.0
aF0.0
aF0.0
aF0.0
aF0.0
aF0.0
aF0.0
aF0.0
aF0.0
aF0.0
aF0.0
aF0.0
aF0.0
asS'Acidaminococcus'
p227
(lp228
F139030.71390307104
aF4.59999954000005
aF94.59999054000082
aF5.599998880000223
aF0.0
aF105.09997898000405
aF229.1999770800019
aF20825.79166968332
aF11249.501124950104
aF0.0
aF1.4000002800000606
aF21177.3978822602
aF5.899998230000529
aF31.500012600004975
aF56101.37194931403
aF0.0
aF221.5998892000551
aF607.6
aF5755.49424450575
aF10236.3030708909
aF0.0
aF0.0
asS'Salinicoccus'
p229
(lp230
F0.0
aF0.0
aF0.0
aF0.0
aF0.0
aF0.0
aF0.0
aF0.0
aF0.0
aF0.0
aF0.0
aF0.0
aF0.0
aF0.0
aF0.0
aF0.0
aF0.0
aF0.0
aF0.0
aF0.0
aF0.0
aF0.0
asS'Kingella'
p231
(lp232
F0.0
aF0.0
aF0.0
aF0.0
aF29.7000059400012
aF14.799997040000607
aF0.0
aF0.0
aF0.0
aF0.0
aF0.0
aF0.0
aF0.0
aF0.0
aF0.0
aF0.0
aF0.0
aF0.0
aF0.0
aF0.0
aF0.0
aF0.0
asS'Alteromonas'
p233
(lp234
F0.0
aF0.0
aF0.0
aF0.0
aF0.0
aF0.0
aF0.0
aF0.0
aF0.0
aF19.299998070000207
aF0.0
aF0.0
aF0.0
aF0.0
aF0.0
aF0.0
aF0.0
aF0.0
aF0.0
aF0.0
aF0.0
aF0.0
asS'Duganella'
p235
(lp236
F0.0
aF0.0
aF0.0
aF0.0
aF0.0
aF0.0
aF0.0
aF0.0
aF0.0
aF0.0
aF0.0
aF0.0
aF0.0
aF0.0
aF0.0
aF0.0
aF0.0
aF0.0
aF0.0
aF0.0
aF0.0
aF0.0
asS'Photobacterium'
p237
(lp238
F0.0
aF0.0
aF0.0
aF0.0
aF0.0
aF0.0
aF0.0
aF0.0
aF0.0
aF0.0
aF0.0
aF0.0
aF0.0
aF0.0
aF0.0
aF0.0
aF0.0
aF0.0
aF0.0
aF0.0
aF0.0
aF0.0
asS'Odoribacter'
p239
(lp240
F285.40002854000306
aF21637.797836220205
aF0.0
aF9463.898107220386
aF0.0
aF181.99996360000708
aF1277.7998722200093
aF13092.694762922112
aF7849.500784950083
aF0.0
aF4305.600861120171
aF252.69997473000302
aF7045.997886200628
aF0.0
aF12085.593957203007
aF5.700000000000001
aF0.0
aF5842.0
aF4247.39575260425
aF8496.30254889076
aF0.0
aF6818.3
asS'Plesiomonas'
p241
(lp242
F0.0
aF0.0
aF0.0
aF0.0
aF0.0
aF0.0
aF0.0
aF0.0
aF0.0
aF0.0
aF0.0
aF0.0
aF0.0
aF0.0
aF0.0
aF0.0
aF0.0
aF0.0
aF0.0
aF0.0
aF0.0
aF0.0
asS'Candidatus_Phytoplasma'
p243
(lp244
F0.0
aF0.0
aF0.0
aF0.0
aF0.0
aF0.0
aF0.0
aF0.0
aF0.0
aF0.0
aF0.0
aF0.0
aF0.0
aF0.0
aF0.0
aF0.0
aF0.0
aF0.0
aF0.0
aF0.0
aF0.0
aF0.0
asS'Cellulophaga'
p245
(lp246
F0.0
aF0.0
aF0.0
aF0.0
aF0.0
aF0.0
aF0.0
aF0.0
aF0.0
aF0.0
aF0.0
aF0.0
aF0.0
aF0.0
aF0.0
aF0.0
aF0.0
aF0.0
aF0.0
aF0.0
aF0.0
aF0.0
asS'Cesiribacter'
p247
(lp248
F0.0
aF0.0
aF0.0
aF0.0
aF0.0
aF0.0
aF0.0
aF0.0
aF0.0
aF0.0
aF0.0
aF0.0
aF0.0
aF0.0
aF0.0
aF0.0
aF0.0
aF0.0
aF0.0
aF0.0
aF0.0
aF0.0
asS'Chryseobacterium'
p249
(lp250
F0.0
aF0.0
aF0.0
aF0.0
aF0.0
aF0.0
aF0.0
aF0.0
aF0.0
aF0.0
aF0.0
aF0.0
aF0.0
aF0.0
aF0.0
aF0.0
aF0.0
aF0.0
aF0.0
aF0.0
aF0.0
aF0.0
asS'Naumovozyma'
p251
(lp252
F0.0
aF0.0
aF0.0
aF0.0
aF0.0
aF0.0
aF0.0
aF0.0
aF0.0
aF0.0
aF0.0
aF0.0
aF0.0
aF0.0
aF0.0
aF0.0
aF0.0
aF0.0
aF0.0
aF0.0
aF0.0
aF0.0
asS'Mahella'
p253
(lp254
F0.0
aF0.0
aF0.0
aF0.0
aF0.0
aF0.0
aF0.0
aF0.0
aF0.0
aF0.0
aF0.0
aF0.0
aF0.0
aF0.0
aF0.0
aF0.0
aF0.0
aF0.0
aF0.0
aF0.0
aF0.0
aF0.0
asS'Thermanaerovibrio'
p255
(lp256
F0.0
aF0.0
aF0.0
aF0.0
aF0.0
aF0.0
aF0.0
aF0.0
aF0.0
aF0.0
aF0.0
aF0.0
aF0.0
aF0.0
aF0.0
aF0.0
aF0.0
aF0.0
aF0.0
aF0.0
aF0.0
aF0.0
asS'Penicillium'
p257
(lp258
F0.0
aF0.0
aF0.0
aF0.0
aF0.0
aF0.0
aF0.0
aF0.0
aF0.0
aF0.0
aF0.0
aF0.0
aF0.0
aF0.0
aF0.0
aF0.0
aF0.0
aF0.0
aF0.0
aF0.0
aF0.0
aF0.0
asS'Stenotrophomonas'
p259
(lp260
F0.0
aF0.0
aF0.0
aF0.0
aF23.2000046400009
aF0.0
aF0.0
aF0.0
aF0.0
aF0.0
aF0.0
aF0.0
aF0.0
aF0.0
aF0.0
aF0.0
aF0.0
aF0.0
aF0.0
aF0.0
aF2.09999979000002
aF0.0
asS'Yokenella'
p261
(lp262
F0.0
aF0.0
aF0.0
aF0.0
aF0.0
aF0.0
aF0.0
aF0.0
aF0.0
aF0.0
aF0.0
aF0.0
aF0.0
aF0.0
aF0.0
aF0.0
aF3.799998100000951
aF0.0
aF0.0
aF0.0
aF0.0
aF0.0
asS'Acidobacterium'
p263
(lp264
F0.0
aF0.0
aF0.0
aF0.0
aF0.0
aF0.0
aF0.0
aF0.0
aF0.0
aF0.0
aF0.0
aF0.0
aF0.0
aF0.0
aF0.0
aF0.0
aF0.0
aF0.0
aF0.0
aF0.0
aF0.0
aF0.0
asS'Succinivibrionaceae_unclassified'
p265
(lp266
F0.0
aF0.0
aF0.0
aF0.0
aF0.0
aF0.0
aF0.0
aF0.0
aF0.0
aF0.0
aF0.0
aF0.0
aF0.0
aF0.0
aF0.0
aF0.0
aF0.0
aF0.0
aF0.0
aF0.0
aF0.0
aF0.0
asS'Spirochaeta'
p267
(lp268
F0.0
aF0.0
aF0.0
aF0.0
aF0.0
aF0.0
aF0.0
aF0.0
aF0.0
aF0.0
aF0.0
aF0.0
aF0.0
aF0.0
aF0.0
aF0.0
aF0.0
aF0.0
aF0.0
aF0.0
aF0.0
aF0.0
asS'Delftia'
p269
(lp270
F0.0
aF0.0
aF0.0
aF0.0
aF0.0
aF0.0
aF0.0
aF0.0
aF0.0
aF0.0
aF0.0
aF0.0
aF0.0
aF0.0
aF0.0
aF0.0
aF0.0
aF0.0
aF0.0
aF0.0
aF0.0
aF0.0
asS'Halobacterium'
p271
(lp272
F0.0
aF0.0
aF0.0
aF0.0
aF0.0
aF0.0
aF0.0
aF0.0
aF0.0
aF0.0
aF0.0
aF0.0
aF0.0
aF0.0
aF0.0
aF0.0
aF0.0
aF0.0
aF0.0
aF0.0
aF0.0
aF0.0
asS'Thermoanaerobacter'
p273
(lp274
F0.0
aF0.0
aF0.0
aF0.0
aF0.0
aF0.0
aF0.0
aF0.0
aF0.0
aF0.0
aF0.0
aF0.0
aF0.0
aF0.0
aF0.0
aF0.0
aF0.0
aF0.0
aF0.0
aF0.0
aF0.0
aF0.0
asS'Dialister'
p275
(lp276
F29657.002965700307
aF11.2999988700001
aF12.199998780000088
aF5.899998820000244
aF0.0
aF38.299992340001516
aF4.699999530000047
aF32572.786970885223
aF19.500001950000208
aF89.09999109000093
aF0.0
aF4.59999954000005
aF0.0
aF9.800003920001561
aF17.199991400004308
aF11.400000000000002
aF17.999991000004506
aF3.3000000000000003
aF21688.0783119217
aF13.0000039000012
aF190.799980920002
aF4.0
asS'Kribbella'
p277
(lp278
F0.0
aF0.0
aF0.0
aF0.0
aF0.0
aF0.0
aF0.0
aF0.0
aF0.0
aF0.0
aF0.0
aF0.0
aF0.0
aF0.0
aF0.0
aF0.0
aF0.0
aF0.0
aF0.0
aF0.0
aF0.0
aF0.0
asS'Methanomassiliicoccus'
p279
(lp280
F0.0
aF0.0
aF0.0
aF0.0
aF0.0
aF0.0
aF0.0
aF0.0
aF0.0
aF0.0
aF0.0
aF0.0
aF0.0
aF0.0
aF0.0
aF0.0
aF0.0
aF0.0
aF0.0
aF0.0
aF0.0
aF0.0
asS'Moorella'
p281
(lp282
F0.0
aF0.0
aF0.0
aF0.0
aF0.0
aF0.0
aF0.0
aF0.0
aF0.0
aF0.0
aF0.0
aF0.0
aF0.0
aF0.0
aF0.0
aF0.0
aF0.0
aF0.0
aF0.0
aF0.0
aF0.0
aF0.0
asS'Oligella'
p283
(lp284
F0.0
aF0.0
aF0.0
aF0.0
aF0.0
aF0.0
aF0.0
aF0.0
aF0.0
aF0.0
aF0.0
aF0.0
aF0.0
aF0.0
aF0.0
aF0.0
aF0.0
aF0.0
aF0.0
aF0.0
aF0.0
aF0.0
asS'Cytophaga'
p285
(lp286
F0.0
aF0.0
aF0.0
aF0.0
aF0.0
aF0.0
aF0.0
aF0.0
aF0.0
aF0.0
aF0.0
aF0.0
aF0.0
aF0.0
aF0.0
aF0.0
aF0.0
aF0.0
aF0.0
aF0.0
aF0.0
aF0.0
asS'Actinomyces'
p287
(lp288
F6.700000670000072
aF102.79998972000101
aF179.09998209000182
aF247.09995058001016
aF739.8001479600299
aF639.0998721800263
aF802.7999197200077
aF13.79999448000221
aF55.30000553000062
aF913.9999086000092
aF48.50000970000192
aF907.5999092400091
aF143.69995689001297
aF192.20007688003082
aF59.59997020001494
aF360.0000000000001
aF369.2998153500921
aF267.7
aF307.9996920003081
aF430.700129210039
aF836.299916370008
aF212.9
asS'Chroococcidiopsis'
p289
(lp290
F0.0
aF0.0
aF0.0
aF0.0
aF0.0
aF0.0
aF0.0
aF0.0
aF0.0
aF0.0
aF0.0
aF0.0
aF0.0
aF0.0
aF0.0
aF0.0
aF0.0
aF0.0
aF0.0
aF0.0
aF0.0
aF0.0
asS'Amycolatopsis'
p291
(lp292
F0.0
aF0.0
aF0.0
aF0.0
aF0.0
aF0.0
aF0.0
aF0.0
aF0.0
aF0.0
aF0.0
aF0.0
aF0.0
aF0.0
aF0.0
aF0.0
aF0.0
aF0.0
aF0.0
aF0.0
aF0.0
aF0.0
asS'Fervidobacterium'
p293
(lp294
F0.0
aF0.0
aF0.0
aF0.0
aF0.0
aF0.0
aF0.0
aF0.0
aF0.0
aF0.0
aF0.0
aF0.0
aF0.0
aF0.0
aF0.0
aF0.0
aF0.0
aF0.0
aF0.0
aF0.0
aF0.0
aF0.0
asS'Halanaerobium'
p295
(lp296
F0.0
aF0.0
aF0.0
aF0.0
aF0.0
aF0.0
aF0.0
aF0.0
aF0.0
aF0.0
aF0.0
aF0.0
aF0.0
aF0.0
aF0.0
aF0.0
aF0.0
aF0.0
aF0.0
aF0.0
aF0.0
aF0.0
asS'Thermosynechococcus'
p297
(lp298
F0.0
aF0.0
aF0.0
aF0.0
aF0.0
aF0.0
aF0.0
aF0.0
aF0.0
aF0.0
aF0.0
aF0.0
aF0.0
aF0.0
aF0.0
aF0.0
aF0.0
aF0.0
aF0.0
aF0.0
aF0.0
aF0.0
asS'Kineosphaera'
p299
(lp300
F0.0
aF0.0
aF0.0
aF0.0
aF0.0
aF0.0
aF0.0
aF0.0
aF0.0
aF0.0
aF0.0
aF0.0
aF0.0
aF0.0
aF0.0
aF0.0
aF0.0
aF0.0
aF0.0
aF0.0
aF0.0
aF0.0
asS'Rivulariaceae_unclassified'
p301
(lp302
F0.0
aF0.0
aF0.0
aF0.0
aF0.0
aF0.0
aF0.0
aF0.0
aF0.0
aF0.0
aF0.0
aF0.0
aF0.0
aF0.0
aF0.0
aF0.0
aF0.0
aF0.0
aF0.0
aF0.0
aF0.0
aF0.0
asS'Geobacter'
p303
(lp304
F0.0
aF0.0
aF0.0
aF0.0
aF0.0
aF0.0
aF0.0
aF0.0
aF0.0
aF0.0
aF0.0
aF0.0
aF0.0
aF0.0
aF0.0
aF0.0
aF0.0
aF0.0
aF0.0
aF0.0
aF0.0
aF0.0
asS'Hymenobacter'
p305
(lp306
F0.0
aF0.0
aF0.0
aF0.0
aF0.0
aF0.0
aF0.0
aF0.0
aF0.0
aF0.0
aF0.0
aF0.0
aF0.0
aF0.0
aF0.0
aF0.0
aF0.0
aF0.0
aF0.0
aF0.0
aF0.0
aF0.0
asS'Idiomarina'
p307
(lp308
F0.0
aF0.0
aF0.0
aF0.0
aF0.0
aF0.0
aF0.0
aF0.0
aF0.0
aF0.0
aF0.0
aF0.0
aF0.0
aF0.0
aF0.0
aF0.0
aF0.0
aF0.0
aF0.0
aF0.0
aF0.0
aF0.0
asS'Methanobrevibacter'
p309
(lp310
F0.0
aF152.399984760002
aF0.0
aF0.0
aF148.500029700006
aF102.69997946000404
aF0.0
aF0.0
aF0.0
aF329.39996706000306
aF531.2001062400212
aF4.09999959000004
aF3309.4990071502993
aF0.0
aF0.0
aF61.50000000000002
aF61.499969250015425
aF0.0
aF0.0
aF1765.70052971016
aF2775.1997224800302
aF0.0
asS'Neisseria'
p311
(lp312
F0.0
aF0.0
aF131.3999868600009
aF50.69998986000203
aF764.100152820031
aF116.09997678000505
aF152.19998478000193
aF22.199991120003617
aF0.0
aF625.0999374900061
aF495.00009900002016
aF0.0
aF23.499992950002095
aF0.0
aF22.799988600005715
aF60.80000000000001
aF0.0
aF16.3
aF0.0
aF45.7000137100041
aF1455.89985441001
aF281.0
asS'Proteiniphilum'
p313
(lp314
F0.0
aF0.0
aF0.0
aF0.0
aF0.0
aF0.0
aF0.0
aF0.0
aF0.0
aF0.0
aF0.0
aF0.0
aF0.0
aF0.0
aF0.0
aF0.0
aF0.0
aF0.0
aF0.0
aF0.0
aF1.39999986000001
aF1.3
asS'Gemella'
p315
(lp316
F0.0
aF21.599997840000203
aF28.799997120000274
aF42.59999148000173
aF810.800162160032
aF38.39999232000152
aF159.59998404000194
aF0.0
aF53.300005330000516
aF340.19996598000307
aF0.0
aF464.49995355000505
aF52.39998428000469
aF133.10005324002086
aF56.699971650014234
aF816.2000000000002
aF56.89997155001422
aF150.5
aF72.2999277000723
aF502.00015060004495
aF990.6999009300099
aF56.6
asS'Youngiibacter'
p317
(lp318
F0.0
aF0.0
aF0.0
aF0.0
aF0.0
aF0.0
aF0.0
aF0.0
aF0.0
aF0.0
aF0.0
aF0.0
aF0.0
aF0.0
aF0.0
aF0.0
aF0.0
aF0.0
aF0.0
aF0.0
aF0.0
aF0.0
asS'Exiguobacterium'
p319
(lp320
F0.0
aF0.0
aF0.0
aF0.0
aF0.0
aF0.0
aF0.0
aF0.0
aF0.0
aF0.0
aF0.0
aF0.0
aF0.0
aF0.0
aF0.0
aF0.0
aF0.0
aF0.0
aF0.0
aF0.0
aF0.0
aF0.0
asS'Tannerella'
p321
(lp322
F0.0
aF0.0
aF0.0
aF0.0
aF9.20000184000037
aF7.399998520000303
aF0.0
aF0.0
aF0.0
aF0.0
aF0.0
aF0.0
aF0.0
aF0.0
aF0.0
aF0.0
aF0.0
aF0.0
aF0.0
aF0.0
aF3.39999966000003
aF0.0
asS'Clostridiaceae_noname'
p323
(lp324
F0.0
aF160.599983940002
aF0.0
aF0.0
aF108.00002160000399
aF0.0
aF83.39999166000077
aF0.0
aF1.4000001400000104
aF85.19999148000093
aF161.50003230000607
aF61.89999381000061
aF64.29998071000578
aF0.0
aF0.9999995000002505
aF147.90000000000003
aF4.599997700001151
aF443.7
aF0.0
aF0.0
aF126.699987330001
aF111.10000000000001
asS'Ethanoligenens'
p325
(lp326
F0.0
aF0.0
aF0.0
aF0.0
aF0.0
aF0.0
aF0.0
aF0.0
aF0.0
aF0.0
aF0.0
aF0.0
aF0.0
aF0.0
aF0.0
aF0.0
aF0.0
aF0.0
aF0.0
aF1.50000045000013
aF1.79999982000002
aF0.0
asS'Alistipes'
p327
(lp328
F1388.3001388300104
aF22966.5977033402
aF11653.89883461009
aF39350.19212996162
aF2417.8004835601
aF2596.8994806201013
aF16448.498355150194
aF85063.86597445367
aF11071.201107120105
aF23706.897629310206
aF67786.81355736272
aF810.2999189700081
aF40749.68777509369
aF6011.202404480955
aF81803.05909847055
aF24211.400000000005
aF492.59975370012313
aF1543.3999999999999
aF37863.562136437904
aF15896.9047690714
aF8563.79914362008
aF39835.4
asS'Parachlamydia'
p329
(lp330
F0.0
aF0.0
aF0.0
aF0.0
aF0.0
aF0.0
aF0.0
aF0.0
aF0.0
aF0.0
aF0.0
aF0.0
aF0.0
aF0.0
aF0.0
aF0.0
aF0.0
aF0.0
aF0.0
aF0.0
aF0.0
aF0.0
asS'Acetivibrio'
p331
(lp332
F0.0
aF0.0
aF0.0
aF0.0
aF0.0
aF0.0
aF0.0
aF0.0
aF0.0
aF0.0
aF0.0
aF0.0
aF0.0
aF0.0
aF0.0
aF0.0
aF0.0
aF0.0
aF0.0
aF0.0
aF0.0
aF0.0
asS'Catenibacterium'
p333
(lp334
F1193.2001193200103
aF0.0
aF41.09999589000036
aF10.599997880000407
aF1609.60032192006
aF8195.198360960334
aF0.0
aF92.89996284001498
aF2.900000290000031
aF155.69998443000205
aF8.300001660000333
aF1284.8998715100101
aF4.199998740000379
aF81.30003252001293
aF8.599995700002154
aF11629.800000000001
aF9838.595080702464
aF0.0
aF79.99992000008001
aF22169.906650972003
aF115.199988480001
aF138.4
asS'Micrococcus'
p335
(lp336
F0.0
aF0.0
aF0.0
aF0.0
aF0.0
aF0.0
aF0.0
aF0.0
aF0.0
aF0.0
aF0.0
aF0.0
aF0.0
aF0.0
aF0.0
aF0.0
aF0.0
aF0.0
aF0.0
aF0.0
aF0.0
aF0.0
asS'T4likevirus'
p337
(lp338
F0.0
aF0.0
aF0.0
aF0.0
aF0.0
aF0.0
aF0.0
aF0.0
aF0.0
aF0.0
aF0.0
aF0.0
aF0.0
aF0.0
aF0.0
aF0.0
aF0.0
aF0.0
aF0.0
aF0.0
aF0.0
aF0.0
asS'Marinimicrobia_noname'
p339
(lp340
F0.0
aF0.0
aF0.0
aF0.0
aF0.0
aF0.0
aF0.0
aF0.0
aF0.0
aF0.0
aF0.0
aF0.0
aF0.0
aF0.0
aF0.0
aF0.0
aF0.0
aF0.0
aF0.0
aF0.0
aF0.0
aF0.0
asS'Acinetobacter'
p341
(lp342
F0.0
aF0.0
aF0.0
aF0.0
aF4734.80094696019
aF0.0
aF0.0
aF0.0
aF0.0
aF0.0
aF0.0
aF0.0
aF0.0
aF2.300000920000368
aF1.2999993500003209
aF61.40000000000001
aF0.0
aF0.0
aF0.0
aF0.0
aF0.0
aF0.0
asS'Herbaspirillum'
p343
(lp344
F0.0
aF0.0
aF0.0
aF0.0
aF0.0
aF0.0
aF0.0
aF0.0
aF0.0
aF0.0
aF0.0
aF0.0
aF0.0
aF0.0
aF0.0
aF0.0
aF0.0
aF0.0
aF0.0
aF0.0
aF0.0
aF0.0
asS'Hippea'
p345
(lp346
F0.0
aF0.0
aF0.0
aF0.0
aF0.0
aF0.0
aF0.0
aF0.0
aF0.0
aF0.0
aF0.0
aF0.0
aF0.0
aF0.0
aF0.0
aF0.0
aF0.0
aF0.0
aF0.0
aF0.0
aF0.0
aF0.0
asS'Fretibacterium'
p347
(lp348
F0.0
aF10.8999989100001
aF0.0
aF0.0
aF0.0
aF1.6999996600000706
aF2.9999997000000285
aF0.0
aF0.0
aF0.0
aF0.0
aF2.19999978000002
aF0.0
aF0.0
aF0.0
aF0.0
aF1.2999993500003204
aF0.0
aF6.1999938000062
aF6.20000186000056
aF0.0
aF0.0
asS'Thauera'
p349
(lp350
F0.0
aF0.0
aF0.0
aF0.0
aF0.0
aF0.0
aF0.0
aF0.0
aF0.0
aF0.0
aF0.0
aF0.0
aF0.0
aF0.0
aF0.0
aF0.0
aF0.0
aF0.0
aF0.0
aF0.0
aF0.0
aF0.0
asS'Flavobacteriia_noname'
p351
(lp352
F0.0
aF0.0
aF0.0
aF0.0
aF0.0
aF0.0
aF0.0
aF0.0
aF0.0
aF0.0
aF0.0
aF0.0
aF0.0
aF0.0
aF0.0
aF0.0
aF0.0
aF0.0
aF0.0
aF0.0
aF0.0
aF0.0
asS'Halococcus'
p353
(lp354
F0.0
aF0.0
aF0.0
aF0.0
aF0.0
aF0.0
aF0.0
aF0.0
aF0.0
aF0.0
aF0.0
aF0.0
aF0.0
aF0.0
aF0.0
aF0.0
aF0.0
aF0.0
aF0.0
aF0.0
aF0.0
aF0.0
asS'Actinomycetospora'
p355
(lp356
F0.0
aF0.0
aF0.0
aF0.0
aF0.0
aF0.0
aF0.0
aF0.0
aF0.0
aF0.0
aF0.0
aF0.0
aF0.0
aF0.0
aF0.0
aF0.0
aF0.0
aF0.0
aF0.0
aF0.0
aF0.0
aF0.0
asS'Mitsuokella'
p357
(lp358
F0.0
aF0.0
aF0.0
aF0.0
aF0.0
aF0.0
aF0.0
aF0.0
aF3.6000003600000414
aF120.09998799000103
aF0.0
aF0.0
aF0.0
aF0.0
aF0.0
aF0.0
aF0.0
aF0.0
aF57.999942000058006
aF1.80000054000016
aF0.0
aF106.8
asS'Zetaproteobacteria_noname'
p359
(lp360
F0.0
aF0.0
aF0.0
aF0.0
aF0.0
aF0.0
aF0.0
aF0.0
aF0.0
aF0.0
aF0.0
aF0.0
aF0.0
aF0.0
aF0.0
aF12.000000000000004
aF0.0
aF0.0
aF0.0
aF0.0
aF0.0
aF0.0
asS'Porphyromonas'
p361
(lp362
F2.6000002600000305
aF154.599984540002
aF193.89998061000182
aF0.0
aF316.300063260013
aF267.9999464000111
aF95.59999044000095
aF0.0
aF1.2000001200000103
aF0.0
aF1.5000003000000606
aF22.399997760000204
aF11.899996430001098
aF58.70002348000934
aF0.0
aF29.300000000000008
aF0.9999995000002503
aF0.0
aF20.599979400020604
aF0.0
aF9.799999020000099
aF17.7
asS'Selenomonas'
p363
(lp364
F0.0
aF3.49999965000003
aF0.0
aF0.0
aF327.500065500013
aF0.0
aF7.099999290000066
aF0.0
aF3.300000330000031
aF69.09999309000072
aF0.0
aF12.3999987600001
aF0.0
aF0.0
aF12.399993800003108
aF17.500000000000004
aF0.0
aF0.0
aF9.4999905000095
aF4.70000141000042
aF82.1999917800008
aF0.0
asS'Pasteurella'
p365
(lp366
F0.0
aF0.0
aF0.0
aF0.0
aF119.90002398000499
aF30.59999388000121
aF19.799998020000192
aF0.0
aF19.40000194000021
aF0.0
aF0.0
aF0.0
aF0.0
aF0.0
aF38.39998080000962
aF0.0
aF43.79997810001092
aF0.0
aF0.0
aF0.0
aF0.0
aF0.0
asS'Atopobium'
p367
(lp368
F9.900000990000102
aF25.4999974500003
aF65.99999340000065
aF63.29998734000254
aF856.500171300034
aF240.59995188001014
aF129.89998701000093
aF7.499997000001206
aF58.20000582000062
aF896.0999103900092
aF25.700005140001007
aF456.19995438000507
aF27.199991840002493
aF44.70001788000706
aF61.19996940001534
aF154.50000000000003
aF389.9998050000971
aF201.29999999999998
aF867.2991327008671
aF54.4000163200049
aF345.899965410003
aF316.3
asS'Pontibacter'
p369
(lp370
F0.0
aF0.0
aF0.0
aF0.0
aF0.0
aF0.0
aF0.0
aF0.0
aF0.0
aF0.0
aF0.0
aF0.0
aF0.0
aF0.0
aF0.0
aF0.0
aF0.0
aF0.0
aF0.0
aF0.0
aF0.0
aF0.0
asS'Gluconobacter'
p371
(lp372
F0.0
aF0.0
aF0.0
aF0.0
aF0.0
aF0.0
aF0.0
aF0.0
aF0.0
aF0.0
aF0.0
aF0.0
aF0.0
aF0.0
aF0.0
aF0.0
aF0.0
aF0.0
aF0.0
aF0.0
aF0.0
aF0.0
asS'Gardnerella'
p373
(lp374
F0.0
aF0.0
aF0.0
aF0.0
aF4.20000084000017
aF0.0
aF0.0
aF0.0
aF0.0
aF0.0
aF0.0
aF0.0
aF0.0
aF0.9000003600001432
aF0.0
aF0.0
aF0.0
aF0.0
aF0.0
aF0.0
aF1.79999982000002
aF0.0
asS'Chlamydophila'
p375
(lp376
F0.0
aF0.0
aF0.0
aF0.0
aF0.0
aF0.0
aF0.0
aF0.0
aF0.0
aF0.0
aF0.0
aF0.0
aF0.0
aF0.0
aF0.0
aF0.0
aF0.0
aF0.0
aF0.0
aF0.0
aF0.0
aF0.0
asS'Roseobacter'
p377
(lp378
F0.0
aF0.0
aF0.0
aF0.0
aF0.0
aF0.0
aF0.0
aF0.0
aF0.0
aF0.0
aF0.0
aF0.0
aF0.0
aF0.0
aF0.0
aF0.0
aF0.0
aF0.0
aF0.0
aF0.0
aF0.0
aF0.0
asS'Agromyces'
p379
(lp380
F0.0
aF0.0
aF0.0
aF0.0
aF0.0
aF0.0
aF0.0
aF0.0
aF0.0
aF0.0
aF0.0
aF0.0
aF0.0
aF0.0
aF0.0
aF0.0
aF0.0
aF0.0
aF0.0
aF0.0
aF0.0
aF0.0
asS'Propionibacterium'
p381
(lp382
F39.70000397000041
aF0.0
aF7.799999220000072
aF3.4999993000001424
aF33.4000066800013
aF52.89998942000213
aF37.79999622000039
aF0.0
aF41.00000410000042
aF32.79999672000031
aF5.5000011000002225
aF23.399997660000203
aF3.6999988900003293
aF32.20001288000517
aF78.19996090001953
aF35.70000000000001
aF20.59998970000521
aF46.199999999999996
aF17.7999822000178
aF73.40002202000659
aF22.9999977000002
aF0.0
asS'Agrobacterium'
p383
(lp384
F0.0
aF0.0
aF0.0
aF0.0
aF5.500001100000221
aF0.0
aF0.0
aF0.0
aF0.0
aF0.0
aF0.0
aF0.0
aF0.0
aF0.0
aF0.0
aF4.600000000000001
aF0.0
aF0.0
aF0.0
aF0.0
aF1.9999998000000199
aF0.0
asS'Ehrlichia'
p385
(lp386
F0.0
aF0.0
aF0.0
aF0.0
aF0.0
aF0.0
aF0.0
aF0.0
aF0.0
aF0.0
aF0.0
aF0.0
aF0.0
aF0.0
aF0.0
aF0.0
aF0.0
aF0.0
aF0.0
aF0.0
aF0.0
aF0.0
asS'Erwinia'
p387
(lp388
F0.0
aF0.0
aF0.0
aF0.0
aF0.0
aF0.0
aF0.0
aF0.0
aF0.0
aF0.0
aF1.7000003400000707
aF0.0
aF0.0
aF0.0
aF0.0
aF0.0
aF0.0
aF0.0
aF0.0
aF0.0
aF0.0
aF0.0
asS'Myoviridae_noname'
p389
(lp390
F0.0
aF0.0
aF0.0
aF2615.5994768801015
aF0.0
aF0.0
aF0.0
aF0.0
aF0.0
aF0.0
aF0.0
aF16986.598301340204
aF0.0
aF0.0
aF0.0
aF0.0
aF0.0
aF0.0
aF0.0
aF0.0
aF0.0
aF0.0
asS'Coprobacillus'
p391
(lp392
F473.1000473100051
aF56.39999436000061
aF87.99999120000082
aF8.799998240000354
aF256.90005138001
aF854.9998290000344
aF769.7999230200077
aF38.199984720006135
aF7.300000730000073
aF1417.9998582000103
aF43.10000862000172
aF641.8999358100061
aF249.99992500002296
aF558.2002232800885
aF0.0
aF3631.4000000000005
aF16.199991900004004
aF1677.8999999999999
aF73.79992620007381
aF32.8000098400029
aF1666.99983330002
aF51.9
asS'Deinococcus'
p393
(lp394
F0.0
aF0.0
aF0.0
aF0.0
aF0.0
aF0.0
aF0.0
aF0.0
aF0.0
aF0.0
aF0.0
aF0.0
aF0.0
aF0.0
aF0.0
aF0.0
aF0.0
aF0.0
aF0.0
aF0.0
aF0.0
aF0.0
asS'Microbulbifer'
p395
(lp396
F0.0
aF0.0
aF0.0
aF0.0
aF0.0
aF0.0
aF0.0
aF0.0
aF0.0
aF0.0
aF0.0
aF0.0
aF0.0
aF0.0
aF0.0
aF0.0
aF0.0
aF0.0
aF0.0
aF0.0
aF0.0
aF0.0
asS'Olsenella'
p397
(lp398
F3.0000003000000306
aF32.399996760000306
aF21.89999781000018
aF234.49995310000915
aF26.4000052800011
aF384.0999231800152
aF68.69999313000066
aF0.0
aF27.800002780000312
aF230.09997699000206
aF13.500002700000504
aF20.399997960000203
aF57.099982870005086
aF36.30001452000577
aF45.299977350011325
aF14.500000000000004
aF55.39997230001382
aF24.4
aF44.899955100044906
aF282.500084750025
aF659.5999340400069
aF67.5
asS'Labrenzia'
p399
(lp400
F0.0
aF0.0
aF0.0
aF0.0
aF0.0
aF0.0
aF0.0
aF0.0
aF0.0
aF0.0
aF0.0
aF0.0
aF0.0
aF0.0
aF0.0
aF0.0
aF0.0
aF0.0
aF0.0
aF0.0
aF0.0
aF0.0
asS'Thermaerobacter'
p401
(lp402
F0.0
aF0.0
aF0.0
aF0.0
aF0.0
aF0.0
aF0.0
aF0.0
aF0.0
aF0.0
aF0.0
aF0.0
aF0.0
aF0.0
aF0.0
aF0.0
aF0.0
aF0.0
aF0.0
aF0.0
aF0.0
aF0.0
asS'Dickeya'
p403
(lp404
F0.0
aF0.0
aF0.0
aF0.0
aF0.0
aF0.0
aF0.0
aF0.0
aF0.0
aF0.0
aF3.100000620000121
aF0.0
aF0.0
aF0.0
aF0.0
aF1.2000000000000002
aF0.0
aF0.0
aF0.0
aF0.0
aF0.0
aF2.0
asS'Sphaerochaeta'
p405
(lp406
F0.0
aF0.0
aF0.0
aF0.0
aF0.0
aF0.0
aF0.0
aF0.0
aF0.0
aF0.0
aF0.0
aF0.0
aF0.0
aF0.7000002800001114
aF0.0
aF0.0
aF0.0
aF0.0
aF0.0
aF0.0
aF0.0
aF0.0
asS'Debaryomyces'
p407
(lp408
F0.0
aF0.0
aF0.0
aF0.0
aF0.0
aF0.0
aF0.0
aF0.0
aF0.0
aF0.0
aF0.0
aF0.0
aF0.0
aF0.0
aF0.0
aF0.0
aF0.0
aF0.0
aF0.0
aF0.0
aF0.0
aF0.0
asS'Debaryomycetaceae_unclassified'
p409
(lp410
F0.0
aF0.0
aF0.0
aF0.0
aF0.0
aF0.0
aF0.0
aF0.0
aF0.0
aF0.0
aF0.0
aF0.0
aF0.0
aF0.0
aF0.0
aF0.0
aF0.0
aF0.0
aF0.0
aF0.0
aF0.0
aF0.0
asS'Bcepmulikevirus'
p411
(lp412
F0.0
aF0.0
aF0.0
aF0.0
aF0.0
aF0.0
aF0.0
aF0.0
aF0.0
aF0.0
aF0.0
aF0.0
aF0.0
aF0.0
aF0.0
aF0.0
aF0.0
aF0.0
aF0.0
aF0.0
aF0.0
aF0.0
asS'Cetobacterium'
p413
(lp414
F0.0
aF294.99997050000303
aF0.0
aF0.0
aF0.0
aF0.0
aF0.0
aF0.0
aF0.0
aF0.0
aF0.0
aF0.0
aF0.0
aF0.0
aF0.0
aF0.0
aF0.0
aF0.0
aF0.0
aF0.0
aF0.0
aF0.0
asS'Peptostreptococcus'
p415
(lp416
F2.6000002600000305
aF5.79999942000006
aF27.799997220000275
aF2.1999995600000912
aF146.20002924000602
aF25.29999494000101
aF50.99999490000048
aF0.0
aF11.200001120000104
aF590.3999409600061
aF14.000002800000605
aF38.299996170000405
aF11.399996580000996
aF84.90003396001352
aF0.0
aF519.7000000000002
aF0.0
aF104.3
aF50.799949200050804
aF83.50002505000751
aF0.0
aF1.5
asS'Methanosphaerula'
p417
(lp418
F0.0
aF0.0
aF0.0
aF0.0
aF0.0
aF0.0
aF0.0
aF0.0
aF0.0
aF0.0
aF0.0
aF0.0
aF0.0
aF0.0
aF0.0
aF0.0
aF0.0
aF0.0
aF0.0
aF0.0
aF0.0
aF0.0
asS'Symbiobacterium'
p419
(lp420
F0.0
aF0.0
aF0.0
aF0.0
aF0.0
aF0.0
aF0.0
aF0.0
aF0.0
aF0.0
aF0.0
aF0.0
aF0.0
aF0.0
aF0.0
aF0.0
aF0.0
aF0.0
aF0.0
aF0.0
aF0.0
aF0.0
asS'Parascardovia'
p421
(lp422
F2.800000280000031
aF0.0
aF7.8999992100000735
aF7.199998560000294
aF0.0
aF326.7999346400132
aF0.0
aF7.599996960001226
aF27.90000279000031
aF174.59998254000203
aF0.0
aF46.3999953600005
aF10.099996970000898
aF0.0
aF1.899999050000481
aF0.0
aF428.6997856501071
aF0.0
aF10.499989500010502
aF9.300002790000839
aF54.2999945700005
aF0.0
asS'Alloscardovia'
p423
(lp424
F0.0
aF0.0
aF0.0
aF0.0
aF432.000086400017
aF0.0
aF0.0
aF50.89997964000814
aF0.0
aF0.0
aF0.0
aF2236.89977631002
aF0.0
aF4.600001840000736
aF0.0
aF0.0
aF0.0
aF0.0
aF828.5991714008292
aF0.0
aF0.0
aF20.1
asS'Campylobacter'
p425
(lp426
F0.0
aF13.6999986300001
aF13.699998630000087
aF17.89999642000071
aF435.80008716001703
aF14.699997060000607
aF0.8999999100000086
aF0.0
aF14.900001490000106
aF655.1999344800062
aF0.0
aF41.39999586000041
aF0.0
aF3.8000015200006065
aF64.09996795001604
aF21.000000000000004
aF176.29991185004405
aF1.5999999999999999
aF57.899942100057906
aF0.0
aF450.999954900004
aF9.5
asS'Curtobacterium'
p427
(lp428
F0.0
aF0.0
aF0.0
aF0.0
aF0.0
aF0.0
aF0.0
aF0.0
aF0.0
aF0.0
aF0.0
aF0.0
aF0.0
aF0.0
aF0.0
aF0.0
aF0.0
aF0.0
aF0.0
aF0.0
aF0.0
aF0.0
asS'Coprobacter'
p429
(lp430
F2.6000002600000305
aF0.0
aF351.6999648300037
aF0.0
aF41.9000083800017
aF0.0
aF6.599999340000068
aF2942.298823080472
aF197.20001972000208
aF7962.6992037300815
aF5057.0010114002025
aF6.89999931000007
aF0.0
aF859.3003437201372
aF1.7999991000004512
aF473.10000000000014
aF0.0
aF22.3
aF2831.8971681028306
aF307.500092250028
aF4951.89950481005
aF2202.6
asS'Candidatus_Moranella'
p431
(lp432
F0.0
aF0.0
aF0.0
aF0.0
aF0.0
aF0.0
aF0.0
aF0.0
aF0.0
aF0.0
aF0.0
aF0.0
aF0.0
aF0.0
aF0.0
aF0.0
aF0.0
aF0.0
aF0.0
aF0.0
aF0.0
aF0.0
asS'Burkholderiales_noname'
p433
(lp434
F0.0
aF32.7999967200003
aF1027.799897220009
aF2770.0994459801113
aF0.0
aF0.0
aF46.79999532000048
aF333.69986652005326
aF12.800001280000105
aF0.0
aF571.6001143200232
aF226.09997739000204
aF3.6999988900003293
aF868.2003472801382
aF3435.5982822008623
aF0.0
aF0.0
aF1762.8999999999999
aF164.39983560016404
aF0.0
aF0.0
aF0.0
asS'Vagococcus'
p435
(lp436
F0.0
aF0.0
aF0.0
aF0.0
aF0.0
aF0.0
aF0.0
aF0.0
aF0.0
aF0.0
aF0.0
aF0.0
aF0.0
aF0.0
aF0.0
aF0.0
aF0.0
aF0.0
aF0.0
aF0.0
aF0.0
aF0.0
asS'Aerococcus'
p437
(lp438
F0.0
aF0.0
aF0.0
aF0.0
aF0.0
aF0.0
aF0.0
aF0.0
aF0.0
aF0.0
aF0.0
aF0.0
aF0.0
aF0.0
aF0.0
aF0.0
aF0.0
aF0.0
aF0.0
aF0.0
aF0.0
aF0.0
asS'Sordaria'
p439
(lp440
F0.0
aF0.0
aF0.0
aF0.0
aF0.0
aF0.0
aF0.0
aF0.0
aF0.0
aF0.0
aF0.0
aF0.0
aF0.0
aF0.0
aF0.0
aF0.0
aF0.0
aF0.0
aF0.0
aF0.0
aF0.0
aF0.0
asS'Deltaproteobacteria_noname'
p441
(lp442
F0.0
aF0.0
aF0.0
aF0.0
aF0.0
aF0.0
aF0.0
aF0.0
aF0.0
aF0.0
aF0.0
aF0.0
aF0.0
aF0.0
aF0.0
aF0.0
aF0.0
aF0.0
aF0.0
aF0.0
aF0.0
aF0.0
asS'Epsilonproteobacteria_noname_unclassified'
p443
(lp444
F0.0
aF0.0
aF0.0
aF0.0
aF0.0
aF0.0
aF0.0
aF0.0
aF0.0
aF0.0
aF0.0
aF0.0
aF0.0
aF0.0
aF0.0
aF0.0
aF0.0
aF0.0
aF0.0
aF0.0
aF0.0
aF0.0
asS'Prevotella'
p445
(lp446
F516.2000516200052
aF9.899999010000101
aF228.8999771100018
aF135243.57295128508
aF4000.10080002016
aF232480.5535038891
aF55039.89449601057
aF1725.9993096002815
aF523221.55232215516
aF11284.898871510102
aF495.30009906002016
aF97935.19020648101
aF88.19997354000787
aF69.70002788001115
aF252450.57377471318
aF1924.4000000000003
aF477548.56122571917
aF197340.7
aF1505.6984943015102
aF205648.76169462802
aF15576.5984423402
aF356.5
asS'Geobacillus'
p447
(lp448
F0.0
aF0.0
aF0.0
aF0.0
aF0.0
aF0.0
aF0.0
aF0.0
aF0.0
aF0.0
aF0.0
aF0.0
aF0.0
aF0.0
aF0.0
aF0.0
aF0.0
aF3.5999999999999996
aF0.0
aF0.0
aF0.0
aF0.0
asS'Thermococcus'
p449
(lp450
F0.0
aF0.0
aF0.0
aF0.0
aF0.0
aF0.0
aF0.0
aF0.0
aF0.0
aF0.0
aF0.0
aF0.0
aF0.0
aF0.0
aF0.0
aF0.0
aF0.0
aF0.0
aF0.0
aF0.0
aF0.0
aF0.0
asS'Treponema'
p451
(lp452
F0.0
aF0.0
aF4.299999570000036
aF0.0
aF3.90000078000016
aF4.999999000000202
aF0.0
aF0.0
aF0.0
aF0.0
aF0.0
aF3.1999996800000305
aF0.0
aF0.0
aF0.0
aF7.800000000000002
aF0.0
aF0.0
aF1.5999984000016003
aF0.0
aF0.0
aF0.0
asS'Proteus'
p453
(lp454
F0.0
aF0.0
aF0.0
aF0.0
aF0.0
aF0.0
aF0.0
aF0.0
aF0.0
aF77.59999224000082
aF0.0
aF0.0
aF0.0
aF0.0
aF0.0
aF0.0
aF0.0
aF0.0
aF0.0
aF0.0
aF0.0
aF0.0
asS'Salinimonas'
p455
(lp456
F0.0
aF0.0
aF0.0
aF0.0
aF0.0
aF0.0
aF0.0
aF0.0
aF0.0
aF0.0
aF0.0
aF0.0
aF0.0
aF0.0
aF0.0
aF0.0
aF0.0
aF0.0
aF0.0
aF0.0
aF0.0
aF0.0
asS'Azoarcus'
p457
(lp458
F0.0
aF0.0
aF0.0
aF0.0
aF0.0
aF0.0
aF0.0
aF0.0
aF0.0
aF0.0
aF0.0
aF0.0
aF0.0
aF0.0
aF0.0
aF0.0
aF0.0
aF0.0
aF0.0
aF0.0
aF0.0
aF0.0
asS'Halorubrum'
p459
(lp460
F0.0
aF0.0
aF0.0
aF0.0
aF0.0
aF0.0
aF0.0
aF0.0
aF0.0
aF0.0
aF0.0
aF0.0
aF0.0
aF0.0
aF0.0
aF0.0
aF0.0
aF0.0
aF0.0
aF0.0
aF0.0
aF0.0
asS'Aeromonas'
p461
(lp462
F0.0
aF7443.3992556600715
aF0.0
aF0.0
aF0.0
aF0.0
aF9.999999000000095
aF0.0
aF0.0
aF0.0
aF0.0
aF0.0
aF0.0
aF0.0
aF0.0
aF0.0
aF7.999996000002002
aF0.0
aF0.0
aF0.0
aF0.0
aF12182.1
asS'Cedecea'
p463
(lp464
F0.0
aF0.0
aF0.0
aF0.0
aF0.0
aF0.0
aF0.0
aF0.0
aF0.0
aF0.0
aF0.0
aF0.0
aF0.0
aF0.0
aF0.0
aF0.0
aF0.0
aF0.0
aF0.0
aF0.0
aF0.0
aF0.0
asS'Propionibacteriaceae_unclassified'
p465
(lp466
F0.0
aF0.0
aF0.0
aF0.0
aF0.0
aF0.0
aF0.0
aF0.0
aF0.0
aF0.0
aF0.0
aF0.0
aF0.0
aF0.0
aF174.1999129000441
aF0.0
aF0.0
aF0.0
aF0.0
aF0.0
aF0.0
aF0.0
asS'Facklamia'
p467
(lp468
F0.0
aF0.0
aF0.0
aF0.0
aF0.0
aF0.0
aF0.0
aF0.0
aF0.0
aF0.0
aF0.0
aF5.79999942000006
aF0.0
aF0.0
aF0.0
aF34.10000000000001
aF0.0
aF0.0
aF0.0
aF0.0
aF0.0
aF0.0
asS'Rickettsiella'
p469
(lp470
F0.0
aF0.0
aF0.0
aF0.0
aF0.0
aF0.0
aF0.0
aF0.0
aF0.0
aF0.0
aF0.0
aF0.0
aF0.0
aF0.0
aF0.0
aF0.0
aF0.0
aF0.0
aF0.0
aF0.0
aF0.0
aF0.0
asS'Firmicutes_noname'
p471
(lp472
F0.0
aF11.599998840000103
aF0.0
aF0.0
aF0.0
aF16.999996600000706
aF0.0
aF0.0
aF1.4000001400000104
aF0.0
aF68.10001362000273
aF29.999997000000306
aF1.3999995800001297
aF0.0
aF0.0
aF0.0
aF2.399998800000601
aF0.0
aF0.0
aF11.400003420001
aF0.0
aF1.7
asS'Macrococcus'
p473
(lp474
F0.0
aF0.0
aF0.0
aF0.0
aF0.0
aF0.0
aF0.0
aF0.0
aF0.0
aF0.0
aF0.0
aF0.0
aF0.0
aF0.0
aF0.0
aF0.0
aF0.0
aF0.0
aF0.0
aF0.0
aF0.0
aF0.0
asS'Desulfurobacteriaceae_unclassified'
p475
(lp476
F0.0
aF0.0
aF0.0
aF0.0
aF0.0
aF0.0
aF0.0
aF0.0
aF0.0
aF0.0
aF0.0
aF0.0
aF0.0
aF0.0
aF0.0
aF0.0
aF0.0
aF0.0
aF0.0
aF0.0
aF0.0
aF0.0
asS'Shewanella'
p477
(lp478
F0.0
aF0.0
aF0.0
aF0.0
aF0.0
aF0.0
aF0.0
aF0.0
aF0.0
aF0.0
aF0.0
aF0.0
aF0.0
aF0.0
aF0.0
aF0.0
aF0.0
aF0.0
aF0.0
aF0.0
aF0.0
aF0.0
asS'Roseomonas'
p479
(lp480
F0.0
aF0.0
aF0.0
aF0.0
aF0.0
aF0.0
aF0.0
aF0.0
aF0.0
aF0.0
aF0.0
aF0.0
aF0.0
aF0.0
aF0.0
aF0.0
aF0.0
aF0.0
aF0.0
aF0.0
aF0.0
aF0.0
asS'Clostridium'
p481
(lp482
F5671.700567170062
aF41460.1958539804
aF18757.298124270183
aF6888.098622380284
aF9948.9019897804
aF4997.999000400203
aF8966.899103310087
aF8166.196733521317
aF4759.500475950052
aF17205.998279400206
aF10998.902199780405
aF8104.599189540081
aF13232.796030161197
aF24165.60966624388
aF4296.897851551073
aF46955.80000000001
aF4150.497924751042
aF4854.4
aF3645.596354403651
aF2357.20070716021
aF13801.498619850101
aF2450.7999999999997
asS'Vibrionales_noname'
p483
(lp484
F0.0
aF0.0
aF0.0
aF0.0
aF0.0
aF0.0
aF0.0
aF0.0
aF0.0
aF0.0
aF0.0
aF0.0
aF0.0
aF0.0
aF0.0
aF0.0
aF0.0
aF0.0
aF0.0
aF0.0
aF0.0
aF0.0
asS'Filifactor'
p485
(lp486
F0.0
aF0.0
aF5.899999410000055
aF0.0
aF40.1000080200016
aF33.599993280001314
aF1.3999998600000094
aF0.0
aF0.0
aF0.0
aF0.0
aF14.499998550000102
aF2.7999991600002496
aF16.100006440002584
aF0.0
aF38.400000000000006
aF0.0
aF3.0
aF7.799992200007802
aF0.0
aF0.0
aF0.0
asS'Caldimonas'
p487
(lp488
F0.0
aF0.0
aF0.0
aF0.0
aF0.0
aF0.0
aF0.0
aF0.0
aF0.0
aF0.0
aF0.0
aF0.0
aF0.0
aF0.0
aF0.0
aF0.0
aF0.0
aF0.0
aF0.0
aF0.0
aF0.0
aF0.0
asS'Janthinobacterium'
p489
(lp490
F0.0
aF0.0
aF0.0
aF0.0
aF0.0
aF0.0
aF0.0
aF0.0
aF0.0
aF0.0
aF0.0
aF0.0
aF0.0
aF0.0
aF0.0
aF0.0
aF0.0
aF0.0
aF0.0
aF0.0
aF0.0
aF0.0
asS'Anaerotruncus'
p491
(lp492
F79.80000798000083
aF6825.0993174900705
aF38.499996150000364
aF780.7998438400315
aF89.70001794000359
aF156.59996868000607
aF99.39999006000095
aF885.8996456401428
aF197.10001971000204
aF226.69997733000204
aF131.70002634000505
aF295.699970430003
aF1793.1994620401595
aF77.40003096001233
aF763.5996182001915
aF198.30000000000004
aF135.59993220003403
aF464.5
aF1233.3987666012301
aF420.500126150038
aF1022.8998977100099
aF85.8
asS'Moraxella'
p493
(lp494
F0.0
aF0.0
aF0.0
aF0.0
aF0.0
aF0.0
aF0.0
aF0.0
aF0.0
aF0.0
aF0.0
aF0.0
aF0.0
aF0.0
aF0.0
aF0.0
aF0.0
aF0.0
aF0.0
aF0.0
aF0.0
aF0.0
asS'Enterobacter'
p495
(lp496
F6497.500649750072
aF45.2999954700005
aF0.0
aF0.0
aF2111.90042238008
aF49249.89015002202
aF384.09996159000383
aF856.1996575201376
aF8.100000810000083
aF359.1999640800041
aF0.0
aF599.3999400600061
aF13.099996070001197
aF0.0
aF176.9999115000441
aF258.80000000000007
aF31203.58439820781
aF386.8
aF417.1995828004171
aF0.0
aF70.2999929700007
aF229.29999999999998
asS'Butyrivibrio'
p497
(lp498
F0.0
aF0.0
aF18.59999814000018
aF52.79998944000213
aF0.0
aF15.89999682000061
aF0.0
aF19.099992360003114
aF0.0
aF0.0
aF24.900004980001007
aF7.499999250000081
aF41.79998746000379
aF0.0
aF12.599993700003207
aF1.9000000000000004
aF13.299993350003303
aF0.0
aF98.6999013000987
aF38.6000115800035
aF10.9999989000001
aF284.4
asS'Pseudoramibacter'
p499
(lp500
F0.0
aF0.0
aF0.0
aF0.0
aF0.0
aF34.39999312000141
aF2.8999997100000283
aF0.0
aF0.0
aF0.0
aF0.0
aF12.699998730000102
aF0.0
aF0.0
aF0.0
aF0.0
aF4.9999975000012515
aF0.0
aF3.9999960000040007
aF0.0
aF0.0
aF0.0
asS'Candidatus_Zinderia'
p501
(lp502
F0.0
aF0.0
aF0.0
aF0.0
aF0.0
aF0.0
aF0.0
aF0.0
aF0.0
aF0.0
aF0.0
aF0.0
aF0.0
aF0.0
aF0.0
aF0.0
aF0.0
aF0.0
aF0.0
aF0.0
aF0.0
aF0.0
asS'Thioalkalivibrio'
p503
(lp504
F0.0
aF0.0
aF0.0
aF0.0
aF0.0
aF0.0
aF0.0
aF0.0
aF0.0
aF0.0
aF0.0
aF0.0
aF0.0
aF0.0
aF0.0
aF0.0
aF0.0
aF0.0
aF0.0
aF0.0
aF0.0
aF0.0
asS'Faecalibacterium'
p505
(lp506
F20498.802049880207
aF25792.197420780303
aF87925.29120747083
aF93582.58128348376
aF84.3000168600034
aF36084.59278308141
aF666.5999333400067
aF30175.187929924825
aF10545.801054580103
aF55514.69444853061
aF99012.61980252403
aF41778.1958221804
aF25041.792487462295
aF50582.820233128055
aF38251.18087440963
aF17885.000000000007
aF15223.092388453804
aF14835.199999999999
aF78670.92132907872
aF27839.2083517625
aF73810.4926189507
aF115242.4
asS'Phascolarctobacterium'
p507
(lp508
F0.0
aF27326.097267390305
aF0.0
aF51032.08979358203
aF8999.60179992036
aF24743.595051281012
aF3.899999610000038
aF13.59999456000221
aF63973.40639734062
aF10.799998920000103
aF24601.80492036101
aF16108.2983891702
aF10613.596815920999
aF12.500005000001988
aF58468.67076566463
aF14759.500000000004
aF49432.975283512416
aF23.8
aF2.0999979000021
aF48075.2144225643
aF9.799999020000099
aF20480.3
asS'Natrinema'
p509
(lp510
F0.0
aF0.0
aF0.0
aF0.0
aF0.0
aF0.0
aF0.0
aF0.0
aF0.0
aF0.0
aF0.0
aF0.0
aF0.0
aF0.0
aF0.0
aF0.0
aF0.0
aF0.0
aF0.0
aF0.0
aF0.0
aF0.0
asS'Alphabaculovirus'
p511
(lp512
F0.0
aF0.0
aF0.0
aF0.0
aF0.0
aF0.0
aF0.0
aF0.0
aF0.0
aF0.0
aF0.0
aF0.0
aF0.0
aF0.0
aF0.0
aF0.0
aF0.0
aF0.0
aF0.0
aF0.0
aF0.0
aF0.0
asS'Terriglobus'
p513
(lp514
F0.0
aF0.0
aF0.0
aF0.0
aF0.0
aF0.0
aF0.0
aF0.0
aF0.0
aF0.0
aF0.0
aF0.0
aF0.0
aF0.0
aF0.0
aF0.0
aF0.0
aF0.0
aF0.0
aF0.0
aF0.0
aF0.0
asS'Thermobacillus'
p515
(lp516
F0.0
aF0.0
aF0.0
aF0.0
aF0.0
aF0.0
aF0.0
aF0.0
aF0.0
aF0.0
aF0.0
aF0.0
aF0.0
aF0.0
aF0.0
aF0.0
aF0.0
aF0.0
aF0.0
aF0.0
aF0.0
aF0.0
asS'Leifsonia'
p517
(lp518
F0.0
aF0.0
aF0.0
aF0.0
aF0.0
aF0.0
aF0.0
aF0.0
aF0.0
aF0.0
aF0.0
aF0.0
aF0.0
aF0.0
aF0.0
aF0.0
aF0.0
aF0.0
aF0.0
aF0.0
aF0.0
aF0.0
asS'Dorea'
p519
(lp520
F9638.200963820102
aF3633.0996366900404
aF2801.799719820028
aF18876.196224760813
aF3208.90064178013
aF13496.997300600506
aF3766.0996233900382
aF1996.2992014803215
aF5727.800572780062
aF5241.599475840051
aF7663.801532760313
aF32643.196735680303
aF35608.18931754319
aF33.30001332000527
aF5394.397302801353
aF155.00000000000003
aF3590.7982046009015
aF0.0
aF30825.569174430802
aF54893.416468024894
aF360.799963920004
aF25240.100000000002
asS'Advenella'
p521
(lp522
F0.0
aF0.0
aF0.0
aF0.0
aF0.0
aF0.0
aF0.0
aF0.0
aF0.0
aF0.0
aF0.0
aF0.0
aF0.0
aF0.0
aF1.499999250000371
aF0.0
aF0.0
aF0.0
aF0.0
aF0.0
aF0.0
aF0.0
asS'Methylobacterium'
p523
(lp524
F0.0
aF0.0
aF0.0
aF0.0
aF0.0
aF0.0
aF0.0
aF0.0
aF0.0
aF0.0
aF0.0
aF0.0
aF0.0
aF0.0
aF0.0
aF0.0
aF0.0
aF0.0
aF0.0
aF0.0
aF0.0
aF0.0
asS'Granulicella'
p525
(lp526
F0.0
aF0.0
aF0.0
aF0.0
aF0.0
aF0.0
aF0.0
aF0.0
aF0.0
aF0.0
aF0.0
aF0.0
aF0.0
aF0.0
aF0.0
aF0.0
aF0.0
aF0.0
aF0.0
aF0.0
aF0.0
aF0.0
asS'Thermus'
p527
(lp528
F0.0
aF0.0
aF3.4999996500000266
aF0.0
aF0.0
aF0.0
aF0.5999999400000057
aF0.0
aF0.0
aF0.0
aF0.0
aF84.9999915000009
aF0.0
aF2.4000009600003778
aF0.0
aF1.9000000000000004
aF3.1999984000008013
aF0.0
aF18.199981800018204
aF2.60000078000023
aF20.1999979800002
aF4.5
asS'Holdemania'
p529
(lp530
F0.0
aF1150.69988493001
aF0.0
aF0.0
aF144.600028920006
aF0.0
aF160.39998396000192
aF534.9997860000864
aF347.9000347900041
aF1393.7998606200103
aF1291.3002582600504
aF92.29999077000092
aF755.3997733800678
aF0.0
aF5.599997200001403
aF722.8000000000002
aF0.0
aF2105.7
aF303.999696000304
aF381.90011457003396
aF1236.29987637001
aF782.2
asS'Methanococcaceae_unclassified'
p531
(lp532
F0.0
aF0.0
aF0.0
aF0.0
aF0.0
aF0.0
aF0.0
aF0.0
aF0.0
aF0.0
aF0.0
aF0.0
aF0.0
aF0.0
aF0.0
aF0.0
aF0.0
aF0.0
aF0.0
aF0.0
aF0.0
aF0.0
asS'Solobacterium'
p533
(lp534
F2.800000280000031
aF18.6999981300002
aF109.1999890800009
aF65.09998698000264
aF559.9001119800221
aF119.19997616000505
aF65.79999342000067
aF11.49999540000181
aF29.500002950000308
aF1811.9998188000204
aF26.30000526000101
aF187.49998125000204
aF120.79996376001097
aF125.70005028001988
aF22.29998885000561
aF0.0
aF156.39992180003904
aF541.6
aF394.99960500039504
aF312.700093810028
aF770.1999229800081
aF107.7
asS'Gallionellaceae_unclassified'
p535
(lp536
F0.0
aF0.0
aF0.0
aF0.0
aF0.0
aF0.0
aF75.69999243000076
aF0.0
aF0.0
aF0.0
aF0.0
aF0.0
aF0.0
aF0.0
aF0.0
aF0.0
aF0.0
aF0.0
aF0.0
aF0.0
aF0.0
aF0.0
asS'Ruminococcus'
p537
(lp538
F2902.2002902200306
aF750.099924990007
aF41.299995870000366
aF63979.68720406263
aF42.700008540001704
aF19149.396170120806
aF5820.899417910057
aF22110.891155643516
aF1455.8001455800106
aF24495.59755044021
aF41099.30821986162
aF28157.997184200303
aF63910.08082697569
aF50381.920152768056
aF45450.077274961426
aF44.00000000000001
aF4446.297776851111
aF4709.6
aF93718.70628129371
aF10403.4031210209
aF47218.895278110496
aF105970.40000000001
asS'Arcobacter'
p539
(lp540
F0.0
aF0.0
aF0.0
aF0.0
aF0.0
aF0.0
aF0.0
aF0.0
aF0.0
aF0.0
aF0.0
aF0.0
aF0.0
aF0.0
aF0.0
aF0.0
aF0.0
aF0.0
aF0.0
aF0.0
aF0.0
aF0.0
asS'Zymophilus'
p541
(lp542
F0.0
aF0.0
aF0.0
aF0.0
aF0.0
aF0.0
aF0.0
aF0.0
aF0.0
aF0.0
aF0.0
aF0.0
aF0.0
aF0.0
aF0.0
aF0.0
aF0.0
aF0.0
aF0.0
aF0.0
aF0.0
aF0.0
asS'Cardiobacterium'
p543
(lp544
F0.0
aF0.0
aF1.8999998100000184
aF7.799998440000315
aF14.700002940000601
aF0.0
aF0.0
aF0.0
aF3.900000390000041
aF7.999999200000081
aF0.0
aF0.0
aF0.0
aF0.0
aF1.5999992000004009
aF0.0
aF0.0
aF0.0
aF0.0
aF6.20000186000056
aF0.0
aF0.0
asS'Kocuria'
p545
(lp546
F0.0
aF0.0
aF0.0
aF0.0
aF98.9000197800039
aF0.0
aF0.0
aF0.0
aF0.0
aF0.0
aF0.0
aF0.0
aF0.0
aF0.0
aF0.0
aF0.0
aF0.0
aF0.0
aF0.0
aF1.50000045000013
aF0.0
aF0.0
asS'Paenibacillus'
p547
(lp548
F0.0
aF0.0
aF0.0
aF0.0
aF0.0
aF0.0
aF0.0
aF0.0
aF0.0
aF0.0
aF0.0
aF0.0
aF0.0
aF0.0
aF0.0
aF0.0
aF0.0
aF0.0
aF0.0
aF0.0
aF0.0
aF0.0
asS'Erysipelotrichaceae_noname'
p549
(lp550
F790.9000790900081
aF6897.599310240071
aF3234.299676570027
aF861.5998276800354
aF2343.20046864009
aF9218.798156240375
aF660.6999339300066
aF373.4998506000603
aF4238.000423800041
aF19738.598026140204
aF13868.902773780605
aF2983.99970160003
aF47179.88584603429
aF2667.101066840428
aF725.7996371001815
aF7437.000000000002
aF4039.097980451011
aF2285.0
aF748.9992510007492
aF13363.4040090212
aF61040.5938959406
aF2429.7
asS'Eubacteriaceae_noname'
p551
(lp552
F43.400004340000415
aF1.69999983000002
aF0.0
aF2.5999994800001014
aF59.500011900002406
aF23.79999524000101
aF0.6999999300000067
aF0.0
aF4.200000420000041
aF18.999998100000205
aF9.500001900000385
aF0.0
aF18.299994510001596
aF6.200002480000984
aF0.0
aF18.400000000000006
aF4.099997950001032
aF18.4
aF15.4999845000155
aF14.3000042900013
aF25.499997450000297
aF2.0999999999999996
asS'Xenorhabdus'
p553
(lp554
F0.0
aF0.0
aF0.0
aF0.0
aF0.0
aF0.0
aF0.0
aF0.0
aF0.0
aF0.0
aF0.0
aF0.0
aF0.0
aF0.0
aF0.0
aF0.0
aF0.0
aF0.0
aF0.0
aF0.0
aF0.0
aF0.0
asS'Roseburia'
p555
(lp556
F7100.400710040071
aF4999.999500000051
aF69787.29302127063
aF6290.798741840254
aF28829.105765821198
aF16234.296753140608
aF12103.298789670094
aF19761.592095363216
aF30130.40301304031
aF6005.5993994400615
aF22301.70446034091
aF9860.299013970101
aF11660.696501790997
aF11997.20479888189
aF7590.396204801905
aF2577.100000000001
aF18553.690723154607
aF7560.599999999999
aF96456.10354389642
aF27425.1082275325
aF860.099913990009
aF15802.0
asS'Alphaproteobacteria_noname'
p557
(lp558
F0.0
aF0.0
aF0.0
aF0.0
aF0.0
aF0.0
aF0.0
aF0.0
aF0.0
aF0.0
aF0.0
aF0.0
aF0.0
aF0.0
aF0.0
aF0.0
aF0.0
aF0.0
aF0.0
aF0.0
aF0.0
aF0.0
asS'Tistrella'
p559
(lp560
F0.0
aF0.0
aF0.0
aF0.0
aF0.0
aF0.0
aF0.0
aF0.0
aF0.0
aF0.0
aF0.0
aF0.0
aF0.0
aF0.0
aF0.0
aF0.0
aF0.0
aF0.0
aF0.0
aF0.0
aF0.0
aF0.0
asS'PhiCD119likevirus'
p561
(lp562
F0.0
aF0.0
aF0.0
aF0.0
aF0.0
aF0.0
aF0.0
aF0.0
aF0.0
aF0.0
aF0.0
aF0.0
aF0.0
aF0.0
aF0.0
aF0.0
aF0.0
aF0.0
aF0.0
aF0.0
aF0.0
aF0.0
asS'Anaerococcus'
p563
(lp564
F1.4000001400000104
aF2.89999971000003
aF0.0
aF2.1999995600000912
aF0.0
aF6.699998660000273
aF2.499999750000019
aF4.5999981600007445
aF24.30000243000021
aF5.799999420000061
aF3.000000600000121
aF101.599989840001
aF31.89999043000289
aF0.0
aF4.399997800001103
aF122.10000000000004
aF0.0
aF1.5999999999999999
aF0.0
aF34.9000104700031
aF10.8999989100001
aF28.0
asS'Dethiosulfovibrio'
p565
(lp566
F0.0
aF0.0
aF0.0
aF0.0
aF0.0
aF0.0
aF0.0
aF0.0
aF0.0
aF0.0
aF0.0
aF0.0
aF0.0
aF0.0
aF0.9999995000002505
aF0.0
aF0.0
aF0.0
aF0.0
aF0.0
aF0.0
aF0.0
asS'Pelotomaculum'
p567
(lp568
F0.0
aF0.0
aF0.0
aF0.0
aF0.0
aF0.0
aF0.0
aF0.0
aF0.0
aF0.0
aF0.0
aF0.0
aF0.0
aF0.0
aF0.0
aF0.0
aF0.0
aF0.0
aF0.0
aF0.0
aF0.0
aF0.0
asS'Psychroflexus'
p569
(lp570
F0.0
aF0.0
aF0.0
aF0.0
aF0.0
aF6.499998700000263
aF0.0
aF0.0
aF0.0
aF0.0
aF0.0
aF0.0
aF0.0
aF0.0
aF0.0
aF0.0
aF0.0
aF0.0
aF0.0
aF0.0
aF0.0
aF0.0
asS'Paraprevotella'
p571
(lp572
F429.60004296000415
aF24097.297590270206
aF2.7999997200000277
aF11297.397740520506
aF0.0
aF837.2998325400343
aF11023.498897650095
aF206.89991724003318
aF6141.300614130062
aF433.6999566300041
aF20026.504005300805
aF93.19999068000091
aF9423.097173070848
aF20.50000820000328
aF8967.595516202246
aF36.50000000000001
aF720.8996395501802
aF10911.199999999999
aF160.49983950016002
aF8495.702548710771
aF559.499944050006
aF3135.9
asS'Gordonibacter'
p573
(lp574
F34.30000343000031
aF50.99999490000051
aF33.899996610000265
aF38.099992380001524
aF22.1000044200009
aF0.0
aF394.99996050000385
aF55.79997768000894
aF1.6000001600000207
aF11.099998890000101
aF331.5000663000131
aF277.799972220003
aF270.29991891002396
aF103.4000413600169
aF16.49999175000411
aF529.0000000000001
aF0.0
aF31.0
aF227.99977200022803
aF77.900023370007
aF10.0999989900001
aF348.8
asS'Clostridiales_Family_XIII_Incertae_Sedis_noname'
p575
(lp576
F0.0
aF14.599998540000101
aF23.69999763000018
aF0.0
aF277.800055560011
aF9.499998100000385
aF5.4999994500000575
aF7.199997120001155
aF2.500000250000031
aF56.899994310000615
aF4.700000940000192
aF1.7999998200000202
aF8.399997480000758
aF19.80000792000318
aF3.5999982000009023
aF18.600000000000005
aF12.499993750003105
aF106.0
aF49.89995010004991
aF17.6000052800016
aF102.799989720001
aF29.099999999999998
asS'Veillonella'
p577
(lp578
F44556.10445561041
aF1031.2998968700101
aF4078.399592160036
aF2600.0994799801015
aF8985.30179706036
aF1366.1997267600507
aF349.59996504000287
aF2031.5991873603214
aF2543.000254300031
aF36376.59636234041
aF442.50008850001814
aF21184.997881500203
aF102.49996925000897
aF1834.2007336802883
aF2477.798761100621
aF558.0000000000001
aF8821.595589202212
aF762.9
aF39894.760105239904
aF490.20014706004406
aF33781.5966218403
aF1833.6
asS'Succinispira'
p579
(lp580
F0.0
aF3.2999996700000307
aF0.0
aF0.0
aF0.0
aF0.0
aF0.0
aF0.0
aF0.0
aF0.0
aF0.0
aF0.0
aF0.0
aF0.0
aF0.0
aF0.0
aF0.0
aF0.0
aF0.0
aF0.0
aF0.0
aF0.0
asS'Mycobacterium'
p581
(lp582
F0.0
aF0.0
aF0.0
aF0.0
aF0.0
aF0.0
aF0.0
aF0.0
aF0.0
aF0.0
aF0.0
aF0.0
aF0.0
aF0.0
aF0.0
aF0.0
aF0.0
aF0.0
aF0.0
aF0.0
aF0.0
aF0.0
asS'Mycoplasma'
p583
(lp584
F0.0
aF0.0
aF0.0
aF0.0
aF0.0
aF0.0
aF0.0
aF0.0
aF0.0
aF0.0
aF0.0
aF0.0
aF0.0
aF0.0
aF0.0
aF0.0
aF0.0
aF0.0
aF0.0
aF0.0
aF0.0
aF0.0
asS'Tolumonas'
p585
(lp586
F0.0
aF0.0
aF0.0
aF0.0
aF0.0
aF0.0
aF0.0
aF0.0
aF0.0
aF0.0
aF0.0
aF0.0
aF0.0
aF0.0
aF0.0
aF0.0
aF0.0
aF0.0
aF0.0
aF0.0
aF0.0
aF0.0
asS'Candidatus_Arthromitus'
p587
(lp588
F0.0
aF0.0
aF0.0
aF0.0
aF0.0
aF0.0
aF0.0
aF0.0
aF0.0
aF0.0
aF0.0
aF0.0
aF0.0
aF0.0
aF0.0
aF0.0
aF0.0
aF0.0
aF0.0
aF0.0
aF0.0
aF0.0
asS'Acetonema'
p589
(lp590
F0.0
aF0.0
aF0.0
aF0.0
aF0.0
aF0.0
aF0.0
aF0.0
aF0.0
aF0.0
aF0.0
aF0.0
aF0.0
aF0.0
aF0.0
aF0.0
aF0.0
aF0.0
aF0.0
aF0.0
aF0.0
aF0.0
asS'Oenococcus'
p591
(lp592
F0.0
aF0.0
aF0.0
aF0.0
aF0.0
aF0.0
aF0.0
aF0.0
aF0.0
aF0.0
aF0.0
aF0.0
aF0.0
aF0.0
aF0.0
aF0.0
aF0.0
aF0.0
aF0.0
aF0.0
aF0.0
aF0.0
asS'Dietzia'
p593
(lp594
F0.0
aF0.0
aF0.0
aF0.0
aF0.0
aF0.0
aF0.0
aF0.0
aF0.0
aF0.0
aF0.0
aF0.0
aF0.0
aF0.0
aF0.0
aF0.0
aF0.0
aF0.0
aF0.0
aF0.0
aF0.0
aF0.0
asS'Pyramidobacter'
p595
(lp596
F11.700001170000101
aF583.4999416500061
aF0.0
aF0.0
aF0.0
aF7.999998400000324
aF0.0
aF0.0
aF0.0
aF0.0
aF0.0
aF33.6999966300003
aF140.69995779001297
aF0.0
aF0.0
aF513.9000000000001
aF0.0
aF0.0
aF0.0
aF3.70000111000033
aF0.0
aF0.0
asS'Gammaretrovirus'
p597
(lp598
F0.0
aF0.0
aF0.0
aF0.0
aF0.0
aF57.19998856000233
aF0.0
aF0.0
aF0.0
aF0.0
aF0.0
aF0.0
aF0.0
aF0.0
aF0.0
aF0.0
aF0.0
aF0.0
aF0.0
aF0.0
aF0.0
aF0.0
asS'Candidatus_Saccharimonas'
p599
(lp600
F0.0
aF0.0
aF0.0
aF0.0
aF0.0
aF0.0
aF0.0
aF0.0
aF0.0
aF0.0
aF0.0
aF0.0
aF0.0
aF0.0
aF0.0
aF0.0
aF0.0
aF0.0
aF0.0
aF0.0
aF0.0
aF0.0
asS'Actinobaculum'
p601
(lp602
F5.7000005700000616
aF0.0
aF0.0
aF0.0
aF0.0
aF0.0
aF0.0
aF0.0
aF0.0
aF0.0
aF0.0
aF0.0
aF0.0
aF0.0
aF0.9999995000002505
aF0.0
aF0.0
aF0.0
aF0.0
aF0.0
aF0.0
aF0.0
asS'Aciduliprofundum'
p603
(lp604
F0.0
aF0.0
aF0.0
aF0.0
aF0.0
aF0.0
aF0.0
aF0.0
aF0.0
aF0.0
aF0.0
aF0.0
aF0.0
aF0.0
aF0.0
aF0.0
aF0.0
aF0.0
aF0.0
aF0.0
aF0.0
aF0.0
asS'Finegoldia'
p605
(lp606
F13.900001390000103
aF0.0
aF0.0
aF0.0
aF0.0
aF8.599998280000344
aF14.699998530000093
aF0.0
aF0.0
aF0.0
aF2.500000500000101
aF149.099985090001
aF0.0
aF6.400002560001014
aF0.0
aF115.70000000000002
aF0.0
aF1.3
aF6.9999930000070005
aF0.0
aF6.49999935000006
aF3.1999999999999997
asS'Staphylococcus'
p607
(lp608
F0.0
aF0.0
aF0.0
aF61.19998776000243
aF0.0
aF0.0
aF20.09999799000019
aF0.0
aF0.0
aF5.199999480000051
aF0.0
aF2.6999997300000302
aF0.0
aF13.500005400002188
aF2.7999986000007016
aF0.0
aF4.299997850001072
aF0.0
aF15.599984400015604
aF0.0
aF0.0
aF0.0
asS'Rudanella'
p609
(lp610
F0.0
aF0.0
aF0.0
aF0.0
aF0.0
aF0.0
aF0.0
aF0.0
aF0.0
aF0.0
aF0.0
aF0.0
aF0.0
aF0.0
aF0.0
aF0.0
aF0.0
aF0.0
aF0.0
aF0.0
aF0.0
aF0.0
asS'Bifidobacterium'
p611
(lp612
F67480.90674809071
aF46.59999534000051
aF164575.38354246184
aF42461.19150776173
aF24.500004900001002
aF49236.59015268202
aF138820.08611799093
aF32131.587147365128
aF6048.300604830062
aF23094.297690570205
aF5481.101096220222
aF89633.89103661092
aF242.19992734002196
aF37220.71488828597
aF5361.697319151343
aF24.400000000000006
aF10008.294995852504
aF17026.1
aF2761.1972388027602
aF133466.740040022
aF88953.4911046509
aF9433.800000000001
asS'Pseudomonas'
p613
(lp614
F0.0
aF143.499985650001
aF0.0
aF0.0
aF688.100137620027
aF83.39998332000333
aF39.399996060000376
aF0.0
aF0.0
aF77.69999223000082
aF0.0
aF0.0
aF0.0
aF0.0
aF0.0
aF498.90000000000015
aF8.399995800002104
aF0.0
aF0.0
aF0.0
aF71.29999287000071
aF0.0
asS'Streptobacillus'
p615
(lp616
F0.0
aF0.0
aF0.0
aF0.0
aF0.0
aF0.0
aF0.0
aF0.0
aF0.0
aF0.0
aF0.0
aF0.0
aF0.0
aF0.0
aF0.0
aF0.0
aF0.0
aF0.0
aF0.0
aF0.0
aF0.0
aF0.0
asS'Gillisia'
p617
(lp618
F0.0
aF0.0
aF0.0
aF0.0
aF0.0
aF0.0
aF0.0
aF0.0
aF0.0
aF0.0
aF0.0
aF0.0
aF0.0
aF0.0
aF0.0
aF0.0
aF0.0
aF0.0
aF0.0
aF0.0
aF0.0
aF0.0
asS'Taylorella'
p619
(lp620
F0.0
aF0.0
aF0.0
aF0.0
aF0.0
aF0.0
aF0.0
aF0.0
aF0.0
aF0.0
aF0.0
aF0.0
aF0.0
aF0.0
aF0.0
aF0.0
aF0.0
aF0.0
aF0.0
aF0.0
aF0.0
aF0.0
asS'Bacteroidetes_noname'
p621
(lp622
F0.0
aF0.0
aF0.0
aF0.0
aF9.00000180000036
aF0.0
aF6.699999330000066
aF0.0
aF0.0
aF6.7999993200000715
aF0.0
aF0.0
aF0.0
aF0.8000003200001272
aF0.0
aF0.0
aF0.0
aF4.0
aF0.0
aF0.0
aF4.5999995400000495
aF0.0
asS'Helicobacter'
p623
(lp624
F0.0
aF0.0
aF0.0
aF0.0
aF0.0
aF0.0
aF10.299998970000097
aF0.0
aF0.0
aF0.0
aF0.0
aF0.0
aF0.0
aF0.0
aF0.0
aF0.0
aF0.0
aF3.3000000000000003
aF21797.2782027218
aF0.0
aF22.1999977800002
aF0.0
asS'Anaerobaculum'
p625
(lp626
F0.0
aF0.0
aF0.0
aF0.0
aF0.0
aF0.0
aF0.0
aF0.0
aF0.0
aF0.0
aF0.0
aF0.0
aF0.0
aF0.0
aF0.0
aF0.0
aF0.0
aF0.0
aF0.0
aF0.0
aF0.0
aF0.0
asS'Dysgonomonas'
p627
(lp628
F0.0
aF0.0
aF0.0
aF0.0
aF0.0
aF0.0
aF0.0
aF0.0
aF0.0
aF0.0
aF0.0
aF0.0
aF0.0
aF0.0
aF0.0
aF2.3000000000000007
aF0.0
aF3.4
aF0.0
aF0.0
aF0.0
aF0.0
asS'Serratia'
p629
(lp630
F0.0
aF0.0
aF0.0
aF0.0
aF234.700046940009
aF0.0
aF0.0
aF12.49999500000201
aF0.0
aF0.0
aF0.0
aF2.9999997000000302
aF0.0
aF0.0
aF0.0
aF47.80000000000001
aF27.099986450006806
aF3.7
aF0.0
aF0.0
aF0.0
aF0.0
asS'Methyloversatilis'
p631
(lp632
F0.0
aF0.0
aF0.0
aF0.0
aF0.0
aF0.0
aF0.0
aF0.0
aF0.0
aF0.0
aF0.0
aF0.0
aF0.0
aF0.0
aF0.0
aF0.0
aF0.0
aF0.0
aF0.0
aF0.0
aF0.0
aF0.0
asS'Desulfitobacterium'
p633
(lp634
F0.0
aF0.0
aF0.0
aF0.0
aF0.0
aF0.0
aF0.0
aF0.0
aF0.0
aF0.0
aF0.0
aF0.0
aF0.0
aF0.0
aF0.0
aF0.0
aF0.0
aF0.0
aF0.0
aF0.0
aF0.0
aF0.0
asS'Lautropia'
p635
(lp636
F0.0
aF7.399999260000071
aF14.299998570000087
aF0.0
aF5.40000108000022
aF1.6999996600000706
aF10.899998910000095
aF0.0
aF6.400000640000062
aF4.399999560000041
aF3.000000600000121
aF0.0
aF0.0
aF5.8000023200009245
aF5.799997100001453
aF0.0
aF0.0
aF0.0
aF0.0
aF9.60000288000086
aF69.29999307000071
aF0.0
asS'Dolosigranulum'
p637
(lp638
F0.0
aF0.0
aF0.0
aF4.999999000000203
aF0.0
aF9.099998180000364
aF1.3999998600000094
aF0.0
aF0.0
aF40.19999598000041
aF0.0
aF0.0
aF0.0
aF0.0
aF0.0
aF0.0
aF12.699993650003204
aF0.0
aF0.0
aF1.40000042000013
aF12.0999987900001
aF0.0
asS'Viruses_noname'
p639
(lp640
F0.0
aF0.0
aF0.0
aF0.0
aF0.0
aF0.0
aF0.0
aF0.0
aF0.0
aF0.0
aF0.0
aF0.0
aF0.0
aF0.0
aF0.0
aF0.0
aF0.0
aF0.0
aF0.0
aF0.0
aF0.0
aF0.0
asS'Blautia'
p641
(lp642
F51521.10515211051
aF10007.798999220102
aF18996.798100320182
aF24409.395118121014
aF52657.5105315021
aF19706.49605870081
aF36007.89639921038
aF4711.898115240754
aF1394.3001394300106
aF66513.29334867072
aF15705.403141080604
aF90709.49092905091
aF63653.480903955686
aF20298.408119363183
aF6578.196710901644
aF82242.60000000002
aF24647.387676306207
aF49018.899999999994
aF49621.850378149604
aF11043.903313171
aF94501.8905498109
aF50052.8
asS'Lawsonia'
p643
(lp644
F0.0
aF0.0
aF0.0
aF0.0
aF0.0
aF0.0
aF0.0
aF0.0
aF16.800001680000204
aF0.0
aF0.0
aF0.0
aF0.0
aF0.0
aF0.0
aF0.0
aF0.0
aF0.0
aF0.0
aF68.3000204900061
aF0.0
aF0.0
asS'Desulfococcus'
p645
(lp646
F0.0
aF0.0
aF0.0
aF0.0
aF0.0
aF0.0
aF0.0
aF0.0
aF0.0
aF0.0
aF0.0
aF0.0
aF0.0
aF0.0
aF0.0
aF0.0
aF0.0
aF0.0
aF0.0
aF0.0
aF0.0
aF0.0
asS'Carnobacterium'
p647
(lp648
F0.0
aF0.0
aF0.0
aF0.0
aF0.0
aF0.0
aF0.0
aF0.0
aF0.0
aF0.0
aF0.0
aF0.0
aF0.0
aF0.0
aF0.0
aF0.0
aF0.0
aF0.0
aF0.0
aF0.0
aF0.0
aF0.0
asS'Lewinella'
p649
(lp650
F0.0
aF0.0
aF0.0
aF0.0
aF0.0
aF0.0
aF0.0
aF0.0
aF0.0
aF0.0
aF0.0
aF0.0
aF0.0
aF0.0
aF0.0
aF0.0
aF0.0
aF0.0
aF0.0
aF0.0
aF0.0
aF0.0
asS'Bacteroidales_noname'
p651
(lp652
F3.0000003000000306
aF669.7999330200071
aF2.7999997200000277
aF1681.799663640071
aF14.4000028800006
aF170.09996598000708
aF94.89999051000096
aF8002.196799121286
aF19.800001980000207
aF15.499998450000204
aF2517.500503500101
aF29.699997030000304
aF5446.098366170489
aF0.0
aF7573.396213301894
aF229.70000000000005
aF21.099989450005307
aF32.6
aF1193.39880660119
aF887.80026634008
aF5.29999947000005
aF253.00000000000003
asS'Alkaliphilus'
p653
(lp654
F0.0
aF0.0
aF0.0
aF0.0
aF0.0
aF0.0
aF0.0
aF0.0
aF0.0
aF0.0
aF0.0
aF0.0
aF0.0
aF0.0
aF0.0
aF0.0
aF0.0
aF0.0
aF0.0
aF0.0
aF0.0
aF0.0
asS'Alloprevotella'
p655
(lp656
F0.0
aF0.0
aF2053.099794690018
aF0.0
aF0.0
aF213.7999572400091
aF1.6999998300000192
aF0.0
aF0.0
aF60.89999391000062
aF0.0
aF0.0
aF0.0
aF2444.1009776403876
aF0.0
aF0.0
aF1.4999992500003705
aF0.0
aF0.0
aF0.0
aF149.999985000001
aF0.0
asS'Pelosinus'
p657
(lp658
F0.0
aF0.0
aF0.0
aF0.0
aF0.0
aF0.0
aF0.0
aF0.0
aF0.0
aF0.0
aF0.0
aF0.0
aF0.0
aF0.0
aF0.0
aF0.0
aF0.0
aF0.0
aF0.0
aF0.0
aF0.0
aF0.0
asS'Bacillus'
p659
(lp660
F0.0
aF0.0
aF0.0
aF0.0
aF0.0
aF0.0
aF291.49997085000285
aF0.0
aF0.0
aF4.699999530000051
aF105.40002108000404
aF0.0
aF0.0
aF0.0
aF0.0
aF0.0
aF0.0
aF0.0
aF0.0
aF0.0
aF0.0
aF0.0
asS'Torulaspora'
p661
(lp662
F0.0
aF0.0
aF0.0
aF0.0
aF0.0
aF0.0
aF0.0
aF0.0
aF0.0
aF0.0
aF0.0
aF0.0
aF0.0
aF0.0
aF0.0
aF0.0
aF0.0
aF0.0
aF0.0
aF0.0
aF0.0
aF0.0
asS'Ruminococcaceae_noname'
p663
(lp664
F1.6000001600000204
aF219.399978060002
aF72.99999270000063
aF917.5998164800375
aF173.10003462000702
aF1293.8997412200506
aF157.49998425000192
aF733.0997067601176
aF886.7000886700093
aF2956.9997043000303
aF8116.401623280323
aF981.69990183001
aF230.49993085002095
aF124.30004972001989
aF734.6996326501844
aF1234.2000000000003
aF130.29993485003305
aF157.89999999999998
aF808.299191700808
aF1269.10038073011
aF1349.7998650200102
aF3397.6000000000004
asS'Xanthomonas'
p665
(lp666
F0.0
aF0.0
aF0.0
aF0.0
aF0.0
aF0.0
aF0.0
aF0.0
aF0.0
aF0.0
aF0.0
aF0.0
aF0.0
aF0.0
aF0.0
aF0.0
aF0.0
aF0.0
aF0.0
aF0.0
aF0.0
aF0.0
asS'Desulfosporosinus'
p667
(lp668
F0.0
aF0.0
aF0.0
aF0.0
aF0.0
aF0.0
aF0.0
aF0.0
aF0.0
aF0.0
aF0.0
aF0.0
aF0.0
aF0.0
aF0.0
aF0.0
aF0.0
aF0.0
aF0.0
aF0.0
aF0.0
aF0.0
asS'Coriobacterium'
p669
(lp670
F0.0
aF0.0
aF0.0
aF0.0
aF0.0
aF0.0
aF0.0
aF0.0
aF0.0
aF0.0
aF0.0
aF0.0
aF0.0
aF0.0
aF0.0
aF0.0
aF0.0
aF0.0
aF0.0
aF0.0
aF0.0
aF0.0
asS'Methylobacter'
p671
(lp672
F0.0
aF0.0
aF0.0
aF0.0
aF0.0
aF0.0
aF0.0
aF0.0
aF0.0
aF0.0
aF0.0
aF0.0
aF0.0
aF0.0
aF0.0
aF0.0
aF1.3999993000003506
aF0.0
aF0.0
aF0.0
aF0.0
aF0.0
asS'Cronobacter'
p673
(lp674
F0.0
aF0.0
aF0.0
aF0.0
aF0.0
aF0.0
aF0.0
aF0.0
aF0.0
aF0.0
aF4.600000920000182
aF5.6999994300000605
aF4.0999987700003695
aF0.0
aF0.0
aF0.0
aF4.199997900001052
aF0.0
aF0.0
aF0.0
aF0.0
aF10.1
asS'Succinimonas'
p675
(lp676
F0.0
aF0.0
aF0.0
aF0.0
aF0.0
aF0.0
aF0.0
aF0.0
aF0.0
aF0.0
aF0.0
aF0.0
aF0.0
aF0.0
aF0.0
aF0.0
aF0.0
aF0.0
aF0.0
aF0.0
aF0.0
aF0.0
asS'Pantoea'
p677
(lp678
F0.0
aF2.49999975000002
aF0.0
aF0.0
aF3289.70065794013
aF117.69997646000506
aF0.0
aF0.0
aF0.0
aF0.0
aF0.0
aF0.0
aF50.89998473000459
aF0.0
aF0.0
aF35.900000000000006
aF3.4999982500008713
aF0.0
aF0.0
aF0.0
aF0.0
aF0.0
asS'Sphingopyxis'
p679
(lp680
F1.7000001700000202
aF0.0
aF0.0
aF0.0
aF0.0
aF0.0
aF0.0
aF0.0
aF0.0
aF0.0
aF0.0
aF0.0
aF0.0
aF0.0
aF0.0
aF0.0
aF0.0
aF0.0
aF0.0
aF0.0
aF0.0
aF0.0
asS'Methanobacterium'
p681
(lp682
F0.0
aF0.0
aF0.0
aF0.0
aF0.0
aF0.0
aF0.0
aF0.0
aF0.0
aF0.0
aF0.0
aF0.0
aF0.0
aF0.0
aF0.0
aF0.0
aF0.0
aF0.0
aF0.0
aF0.0
aF0.0
aF0.0
asS'Anaeroglobus'
p683
(lp684
F895.9000895900092
aF6.199999380000061
aF1.7999998200000182
aF0.0
aF12.0000024000005
aF44.19999116000182
aF6.899999310000067
aF0.0
aF17.700001770000206
aF9.699999030000102
aF3.3000006600001313
aF19.799998020000203
aF0.0
aF2.100000840000338
aF0.0
aF8.700000000000001
aF68.89996555001723
aF0.0
aF0.0
aF0.0
aF0.0
aF2.2
asS'Blattabacterium'
p685
(lp686
F0.0
aF0.0
aF0.0
aF0.0
aF0.0
aF0.0
aF0.0
aF0.0
aF0.0
aF0.0
aF0.0
aF0.0
aF0.0
aF0.0
aF0.0
aF0.0
aF0.0
aF0.0
aF0.0
aF0.0
aF0.0
aF0.0
asS'Jonquetella'
p687
(lp688
F0.0
aF0.0
aF0.0
aF0.0
aF0.0
aF0.0
aF0.0
aF0.0
aF0.0
aF0.0
aF0.0
aF0.0
aF0.0
aF0.0
aF0.0
aF0.0
aF0.0
aF0.0
aF0.0
aF0.0
aF0.0
aF0.0
asS'Desulfurivibrio'
p689
(lp690
F0.0
aF0.0
aF0.0
aF0.0
aF0.0
aF0.0
aF0.0
aF0.0
aF0.0
aF0.0
aF0.0
aF0.0
aF0.0
aF0.0
aF0.0
aF0.0
aF0.0
aF0.0
aF0.0
aF0.0
aF0.0
aF0.0
asS'Eggerthia'
p691
(lp692
F0.0
aF0.0
aF0.0
aF0.0
aF22.6000045200009
aF0.0
aF0.0
aF0.0
aF0.0
aF0.0
aF0.0
aF25.599997440000305
aF9.499997150000858
aF0.0
aF0.0
aF0.0
aF2.799998600000701
aF0.0
aF6.599993400006601
aF5.00000150000045
aF0.0
aF0.0
asS'Sporolactobacillus'
p693
(lp694
F0.0
aF0.0
aF0.0
aF0.0
aF0.0
aF0.0
aF0.0
aF0.0
aF0.0
aF0.0
aF0.0
aF0.0
aF0.0
aF0.0
aF0.0
aF0.0
aF0.0
aF0.0
aF0.0
aF0.0
aF0.0
aF0.0
asS'Rhodanobacter'
p695
(lp696
F0.0
aF0.0
aF0.0
aF0.0
aF0.0
aF0.0
aF0.0
aF0.0
aF0.0
aF0.0
aF0.0
aF0.0
aF0.0
aF0.0
aF0.0
aF0.0
aF0.0
aF0.0
aF0.0
aF0.0
aF0.0
aF0.0
asS'Marvinbryantia'
p697
(lp698
F0.0
aF1.8999998100000204
aF0.0
aF223.69995526000915
aF0.0
aF0.0
aF3.1999996800000283
aF0.0
aF0.0
aF4.499999550000041
aF0.0
aF18.2999981700002
aF10.899996730000998
aF5.900002360000935
aF8.299995850002086
aF2.3000000000000007
aF0.0
aF1.5999999999999999
aF0.0
aF4.90000147000044
aF0.0
aF0.0
asS'Burkholderia'
p699
(lp700
F0.0
aF0.0
aF0.0
aF0.0
aF0.0
aF0.0
aF0.0
aF0.0
aF0.0
aF0.0
aF0.0
aF0.0
aF0.0
aF0.0
aF0.0
aF0.0
aF0.0
aF0.0
aF0.0
aF0.0
aF0.0
aF0.0
asS'Raoultella'
p701
(lp702
F195.40001954000203
aF0.0
aF0.0
aF0.0
aF0.0
aF0.0
aF6.399999360000057
aF23.199990720003722
aF0.0
aF0.0
aF32353.20647064131
aF92.49999075000092
aF4.199998740000379
aF0.0
aF85.79995710002154
aF11093.000000000004
aF479.59976020012016
aF0.0
aF0.0
aF44.800013440003994
aF0.0
aF53621.4
asS'Synergistes'
p703
(lp704
F0.0
aF0.0
aF0.0
aF0.0
aF0.0
aF0.0
aF0.0
aF0.0
aF0.0
aF0.0
aF0.0
aF0.0
aF0.0
aF0.0
aF0.0
aF0.0
aF0.0
aF0.0
aF0.0
aF0.0
aF0.0
aF0.0
asS'Tepidanaerobacter'
p705
(lp706
F0.0
aF0.0
aF0.0
aF0.0
aF0.0
aF0.0
aF0.0
aF0.0
aF0.0
aF0.0
aF0.0
aF0.0
aF0.0
aF0.0
aF0.0
aF0.0
aF0.0
aF0.0
aF0.0
aF0.0
aF0.0
aF0.0
asS'Sulfurimonas'
p707
(lp708
F0.0
aF0.0
aF0.0
aF0.0
aF0.0
aF0.0
aF0.0
aF0.0
aF0.0
aF0.0
aF0.0
aF0.0
aF0.0
aF0.0
aF0.0
aF0.0
aF0.0
aF0.0
aF0.0
aF0.0
aF0.0
aF0.0
asS'Parasutterella'
p709
(lp710
F0.0
aF57.499994250000604
aF977.9999022000092
aF3065.9993868001216
aF0.0
aF0.0
aF205.5999794400019
aF1101.7995592801808
aF26.70000267000031
aF0.0
aF1047.7002095400403
aF308.89996911000304
aF22.899993130002095
aF672.7002690801073
aF4447.5977762011125
aF1.9000000000000004
aF0.0
aF6611.2
aF456.09954390045607
aF22.700006810002
aF0.0
aF0.0
asS'Myroides'
p711
(lp712
F0.0
aF0.0
aF0.0
aF0.0
aF0.0
aF0.0
aF0.0
aF0.0
aF0.0
aF0.0
aF0.0
aF0.0
aF0.0
aF0.0
aF0.0
aF0.0
aF0.0
aF0.0
aF0.0
aF0.0
aF0.0
aF0.0
asS'Collinsella'
p713
(lp714
F48817.10488171051
aF2079.2997920700204
aF40952.49590475036
aF42395.291520941726
aF3695.4007390801503
aF11426.097714780506
aF59063.99409360057
aF3850.098459960623
aF2125.4002125400207
aF8943.199105680093
aF3555.1007110201413
aF38543.79614562041
aF14867.495539751297
aF25826.610330644075
aF4761.997619001193
aF9151.100000000002
aF1047.0994764502605
aF12586.699999999999
aF14780.785219214802
aF27100.208130062398
aF26637.6973362303
aF10646.4
asS'Ochrobactrum'
p715
(lp716
F0.0
aF0.0
aF0.0
aF0.0
aF0.0
aF0.0
aF0.0
aF0.0
aF0.0
aF0.0
aF0.0
aF0.0
aF0.0
aF0.0
aF0.0
aF0.0
aF0.0
aF0.0
aF0.0
aF0.0
aF0.0
aF0.0
asS'Marinilabiliaceae_unclassified'
p717
(lp718
F0.0
aF0.0
aF0.0
aF0.0
aF0.0
aF0.0
aF0.0
aF0.0
aF0.0
aF0.0
aF0.0
aF0.0
aF8.09999757000073
aF0.0
aF0.0
aF0.0
aF0.0
aF0.0
aF0.0
aF0.0
aF0.0
aF0.0
asS'Xanthobacteraceae_unclassified'
p719
(lp720
F0.0
aF0.0
aF0.0
aF0.0
aF0.0
aF0.0
aF0.0
aF0.0
aF0.0
aF0.0
aF0.0
aF0.0
aF0.0
aF0.0
aF0.0
aF0.0
aF0.0
aF0.0
aF0.0
aF0.0
aF0.0
aF0.0
asS'Giardia'
p721
(lp722
F0.0
aF0.0
aF0.0
aF0.0
aF0.0
aF0.0
aF0.0
aF0.0
aF1.8000001800000207
aF42177.99578220041
aF0.0
aF0.0
aF0.0
aF0.0
aF0.0
aF0.0
aF0.0
aF0.0
aF0.0
aF0.0
aF63820.19361798059
aF0.0
asS'Polyomavirus'
p723
(lp724
F0.0
aF0.0
aF0.0
aF0.0
aF0.0
aF0.0
aF0.0
aF0.0
aF0.0
aF6810.499318950071
aF0.0
aF0.0
aF0.0
aF0.0
aF0.0
aF0.0
aF0.0
aF0.0
aF0.0
aF0.0
aF2442.6997557300197
aF0.0
asS'Brevundimonas'
p725
(lp726
F0.0
aF0.0
aF0.0
aF0.0
aF0.0
aF0.0
aF0.0
aF0.0
aF0.0
aF0.0
aF0.0
aF0.0
aF0.0
aF0.0
aF0.0
aF0.0
aF0.0
aF0.0
aF0.0
aF0.0
aF0.0
aF0.0
asS'Candidatus_Saccharibacteria_noname'
p727
(lp728
F0.0
aF68.3999931600007
aF4.499999550000036
aF0.0
aF191.000038200008
aF3.6999992600001517
aF16.49999835000019
aF0.0
aF27.800002780000312
aF329.9999670000031
aF11.800002360000503
aF14.399998560000101
aF35.699989290003195
aF2.8000011200004473
aF0.0
aF1.2000000000000002
aF5.699997150001422
aF24.6
aF28.699971300028704
aF63.300018990005704
aF160.799983920002
aF17.4
asS'Mulikevirus'
p729
(lp730
F0.0
aF0.0
aF0.0
aF0.0
aF0.0
aF0.0
aF0.0
aF0.0
aF0.0
aF0.0
aF0.0
aF0.0
aF0.0
aF0.0
aF0.0
aF0.0
aF0.0
aF0.0
aF0.0
aF0.0
aF0.0
aF0.0
asS'Rhodopseudomonas'
p731
(lp732
F0.0
aF0.0
aF0.0
aF0.0
aF0.0
aF0.0
aF0.0
aF0.0
aF0.0
aF0.0
aF0.0
aF0.0
aF0.0
aF0.0
aF0.0
aF0.0
aF0.0
aF0.0
aF0.0
aF0.0
aF0.0
aF0.0
asS'Sphingobacterium'
p733
(lp734
F0.0
aF0.0
aF0.0
aF0.0
aF0.0
aF0.0
aF0.0
aF0.0
aF0.0
aF0.0
aF0.0
aF0.0
aF0.0
aF6.700002680001063
aF0.0
aF0.0
aF0.0
aF0.0
aF0.0
aF0.0
aF0.0
aF0.0
asS'Cellvibrio'
p735
(lp736
F0.0
aF0.0
aF0.0
aF0.0
aF0.0
aF0.0
aF0.0
aF0.0
aF0.0
aF0.0
aF0.0
aF0.0
aF0.0
aF0.0
aF0.0
aF0.0
aF0.0
aF0.0
aF0.0
aF0.0
aF0.0
aF0.0
asS'Dermatophilaceae_unclassified'
p737
(lp738
F0.0
aF0.0
aF0.0
aF0.0
aF0.0
aF0.0
aF0.0
aF0.0
aF0.0
aF0.0
aF0.0
aF0.0
aF0.0
aF0.0
aF0.0
aF0.0
aF0.0
aF0.0
aF0.0
aF0.0
aF0.0
aF0.0
asS'Elizabethkingia'
p739
(lp740
F0.0
aF0.0
aF0.0
aF0.0
aF0.0
aF0.0
aF0.0
aF0.0
aF0.0
aF0.0
aF0.0
aF0.0
aF0.0
aF0.0
aF0.0
aF0.0
aF0.0
aF0.0
aF0.0
aF0.0
aF0.0
aF0.0
asS'Nakaseomyces'
p741
(lp742
F7.000000700000071
aF0.0
aF0.0
aF0.0
aF0.0
aF33.099993380001315
aF0.0
aF0.0
aF0.0
aF0.0
aF0.0
aF0.0
aF0.0
aF0.0
aF0.0
aF0.0
aF4.099997950001032
aF0.0
aF0.0
aF0.0
aF0.0
aF0.0
asS'Microbacterium'
p743
(lp744
F0.0
aF0.0
aF0.0
aF0.0
aF0.0
aF0.0
aF0.0
aF0.0
aF0.0
aF0.0
aF0.0
aF0.0
aF0.0
aF0.0
aF0.0
aF0.0
aF0.0
aF0.0
aF0.0
aF0.0
aF0.0
aF0.0
asS'Aliivibrio'
p745
(lp746
F0.0
aF0.0
aF0.0
aF0.0
aF0.0
aF0.0
aF0.0
aF0.0
aF0.0
aF0.0
aF0.0
aF0.0
aF0.0
aF0.0
aF0.0
aF0.0
aF0.0
aF0.0
aF0.0
aF0.0
aF0.0
aF0.0
asS'Rheinheimera'
p747
(lp748
F0.0
aF0.0
aF0.0
aF0.0
aF0.0
aF0.0
aF0.0
aF0.0
aF0.0
aF0.0
aF0.0
aF0.0
aF3.2999990100002994
aF0.0
aF0.0
aF0.0
aF0.0
aF0.0
aF0.0
aF0.0
aF0.0
aF0.0
asS'Brevibacterium'
p749
(lp750
F1.8000001800000205
aF0.0
aF0.0
aF0.0
aF0.0
aF0.0
aF0.0
aF0.0
aF0.0
aF0.0
aF0.0
aF0.0
aF0.0
aF0.0
aF0.0
aF0.0
aF0.0
aF0.0
aF0.0
aF0.0
aF0.0
aF0.0
asS'Turicella'
p751
(lp752
F0.0
aF0.0
aF0.0
aF0.0
aF10.7000021400004
aF0.0
aF0.0
aF0.0
aF0.0
aF0.0
aF0.0
aF0.0
aF0.0
aF0.0
aF0.0
aF0.0
aF0.0
aF0.0
aF0.0
aF0.0
aF0.0
aF0.0
asS'Corynebacterium'
p753
(lp754
F0.0
aF17.999998200000203
aF12.199998780000088
aF29.199994160001214
aF65.10001302000259
aF36.199992760001415
aF24.799997520000186
aF0.0
aF18.400001840000208
aF67.09999329000071
aF1.6000003200000605
aF12.3999987600001
aF19.599994120001796
aF8.200003280001303
aF0.0
aF0.0
aF3.6999981500009214
aF36.300000000000004
aF12.699987300012701
aF40.0000120000036
aF140.39998596000098
aF25.2
asS'Sphingobium'
p755
(lp756
F0.0
aF0.0
aF0.0
aF0.0
aF0.0
aF0.0
aF0.0
aF0.0
aF0.0
aF0.0
aF0.0
aF0.0
aF0.0
aF0.0
aF0.0
aF0.0
aF0.0
aF0.0
aF0.0
aF0.0
aF0.0
aF0.0
asS'Leucobacter'
p757
(lp758
F0.0
aF0.0
aF0.0
aF0.0
aF0.0
aF0.0
aF0.0
aF0.0
aF0.0
aF0.0
aF0.0
aF0.0
aF0.0
aF0.0
aF0.0
aF0.0
aF0.0
aF0.0
aF0.0
aF0.0
aF0.0
aF0.0
asS'Allofustis'
p759
(lp760
F0.0
aF0.0
aF0.0
aF0.0
aF0.0
aF0.0
aF0.0
aF0.0
aF0.0
aF0.0
aF0.0
aF0.0
aF0.0
aF0.0
aF0.0
aF0.0
aF0.0
aF0.0
aF0.0
aF0.0
aF0.0
aF0.0
asS'Segniliparus'
p761
(lp762
F0.0
aF0.0
aF0.0
aF0.0
aF0.0
aF0.0
aF0.0
aF0.0
aF0.0
aF0.0
aF0.0
aF2.6999997300000302
aF0.0
aF0.0
aF0.0
aF0.0
aF0.0
aF0.0
aF0.0
aF0.0
aF0.0
aF0.0
asS'Sutterellaceae_unclassified'
p763
(lp764
F0.0
aF5520.49944795006
aF0.0
aF0.0
aF0.0
aF0.0
aF4300.399569960038
aF0.0
aF0.0
aF0.0
aF0.0
aF0.0
aF2697.4991907502394
aF0.0
aF0.0
aF0.0
aF0.0
aF0.0
aF0.0
aF0.0
aF0.0
aF230.5
asS'Mobiluncus'
p765
(lp766
F0.0
aF0.0
aF0.0
aF0.0
aF0.0
aF0.0
aF0.0
aF0.0
aF0.0
aF0.0
aF0.0
aF0.0
aF0.0
aF0.0
aF0.0
aF1.9000000000000004
aF0.0
aF0.0
aF0.0
aF0.0
aF17.4999982500002
aF8.8
asS'Photorhabdus'
p767
(lp768
F0.0
aF0.0
aF0.0
aF0.0
aF0.0
aF0.0
aF0.0
aF0.0
aF0.0
aF0.0
aF0.0
aF0.0
aF0.0
aF0.0
aF0.0
aF0.0
aF0.0
aF0.0
aF0.0
aF0.0
aF0.0
aF0.0
asS'Acidovorax'
p769
(lp770
F3.600000360000041
aF0.0
aF0.0
aF0.0
aF0.0
aF0.0
aF0.0
aF0.0
aF0.0
aF0.0
aF0.0
aF0.0
aF0.0
aF0.0
aF0.0
aF0.0
aF0.0
aF0.0
aF0.0
aF0.0
aF0.0
aF0.0
asS'Chlorobaculum'
p771
(lp772
F0.0
aF0.0
aF0.0
aF0.0
aF0.0
aF0.0
aF0.0
aF0.0
aF0.0
aF0.0
aF0.0
aF0.0
aF0.0
aF0.0
aF0.0
aF0.0
aF0.0
aF0.0
aF0.0
aF0.0
aF0.0
aF0.0
asS'Desulfovibrio'
p773
(lp774
F19.100001910000206
aF278.99997210000305
aF3438.3996561600266
aF0.0
aF60.8000121600024
aF0.0
aF13.099998690000094
aF85.99996560001387
aF790.8000790800082
aF49.29999507000051
aF8.500001700000343
aF0.0
aF75.79997726000678
aF1630.9006523602584
aF0.0
aF964.2000000000003
aF22.499988750005606
aF26.9
aF97.3999026000974
aF1208.90036267011
aF589.699941030006
aF26.7
asS'Shigella'
p775
(lp776
F0.0
aF0.0
aF0.0
aF0.0
aF0.0
aF0.0
aF0.0
aF0.0
aF0.0
aF0.0
aF0.0
aF0.0
aF0.0
aF0.0
aF0.0
aF0.0
aF0.0
aF0.0
aF0.0
aF0.0
aF0.0
aF0.0
asS'Acidaminococcaceae_unclassified'
p777
(lp778
F0.0
aF0.0
aF0.0
aF0.0
aF0.0
aF0.0
aF0.0
aF0.0
aF0.0
aF0.0
aF0.0
aF0.0
aF0.0
aF0.0
aF0.0
aF0.0
aF0.0
aF0.0
aF0.0
aF0.0
aF0.0
aF0.0
asS'Lachnobacterium'
p779
(lp780
F0.0
aF0.0
aF0.0
aF0.0
aF0.0
aF0.0
aF0.0
aF0.0
aF0.0
aF0.0
aF0.0
aF0.0
aF0.0
aF0.0
aF0.0
aF0.0
aF0.0
aF0.0
aF0.0
aF0.0
aF0.0
aF0.0
asS'Vibrio'
p781
(lp782
F84.90000849000083
aF0.0
aF0.0
aF0.0
aF0.0
aF0.0
aF0.0
aF0.0
aF0.0
aF0.0
aF0.0
aF0.0
aF0.0
aF0.0
aF0.0
aF0.0
aF0.0
aF0.0
aF0.0
aF0.0
aF0.0
aF0.0
asS'Ilyobacter'
p783
(lp784
F0.0
aF0.0
aF0.0
aF0.0
aF0.0
aF0.0
aF0.0
aF0.0
aF0.0
aF0.0
aF0.0
aF0.0
aF0.0
aF0.0
aF0.0
aF0.0
aF0.0
aF0.0
aF0.0
aF0.0
aF0.0
aF0.0
asS'Cardiobacteriaceae_unclassified'
p785
(lp786
F0.0
aF0.0
aF4.799999520000045
aF0.0
aF17.6000035200007
aF0.0
aF0.0
aF0.0
aF1.6000001600000207
aF0.0
aF0.0
aF0.0
aF0.0
aF0.0
aF1.3999993000003508
aF6.800000000000002
aF0.0
aF1.4
aF1.8999981000019002
aF0.0
aF5.09999949000005
aF0.0
asS'Promicromonosporaceae_unclassified'
p787
(lp788
F0.0
aF0.0
aF0.0
aF0.0
aF0.0
aF0.0
aF0.0
aF0.0
aF0.0
aF0.0
aF0.0
aF0.0
aF0.0
aF0.0
aF0.0
aF0.0
aF0.0
aF0.0
aF0.0
aF0.0
aF0.0
aF0.0
asS'Janibacter'
p789
(lp790
F0.0
aF0.0
aF0.0
aF0.0
aF0.0
aF0.0
aF0.0
aF0.0
aF0.0
aF0.0
aF0.0
aF0.0
aF0.0
aF0.0
aF0.0
aF0.0
aF0.0
aF0.0
aF0.0
aF0.0
aF0.0
aF0.0
asS'Cupriavidus'
p791
(lp792
F0.0
aF0.0
aF0.0
aF0.0
aF0.0
aF0.0
aF0.0
aF0.0
aF0.0
aF0.0
aF0.0
aF0.0
aF0.0
aF0.0
aF0.0
aF0.0
aF0.0
aF0.0
aF0.0
aF0.0
aF0.0
aF0.0
asS'Desulfotomaculum'
p793
(lp794
F0.0
aF0.0
aF1.4999998500000087
aF0.0
aF0.0
aF0.0
aF0.0
aF0.0
aF0.0
aF0.0
aF0.0
aF0.0
aF0.0
aF0.0
aF0.0
aF0.0
aF0.0
aF0.0
aF0.0
aF0.0
aF0.0
aF0.0
asS'Haemophilus'
p795
(lp796
F21.100002110000208
aF248.79997512000205
aF459.7999540200046
aF2712.1994575601116
aF50713.110142622005
aF4150.199169960172
aF1625.0998374900191
aF0.0
aF2431.7002431700207
aF24661.597533840206
aF32.00000640000131
aF1471.6998528300103
aF33.199990040002994
aF314.30012572004966
aF5681.397159301423
aF554.4000000000002
aF3577.4982112508915
aF349.2
aF14448.585551414402
aF1206.60036198011
aF17214.7982785202
aF198.70000000000002
asS'Phaeospirillum'
p797
(lp798
F0.0
aF0.0
aF0.0
aF0.0
aF0.0
aF0.0
aF0.0
aF0.0
aF0.0
aF0.0
aF0.0
aF0.0
aF0.0
aF0.0
aF0.0
aF0.0
aF0.0
aF0.0
aF0.0
aF0.0
aF0.0
aF0.0
asS'Scardovia'
p799
(lp800
F0.0
aF7.99999920000008
aF0.0
aF8.299998340000336
aF0.0
aF542.3998915200223
aF34.79999652000028
aF22.99999080000372
aF21.80000218000021
aF80.29999197000082
aF5.400001080000222
aF3.1999996800000305
aF33.29999001000299
aF0.7000002800001114
aF0.0
aF0.0
aF825.2995873502063
aF35.7
aF30.499969500030502
aF71.1000213300064
aF21.399997860000198
aF2.8
asS'Nocardia'
p801
(lp802
F0.0
aF0.0
aF0.0
aF0.0
aF0.0
aF0.0
aF0.0
aF0.0
aF0.0
aF0.0
aF0.0
aF0.0
aF0.0
aF0.0
aF0.0
aF0.0
aF0.0
aF0.0
aF0.0
aF0.0
aF0.0
aF0.0
asS'Oscillibacter'
p803
(lp804
F28.300002830000306
aF14767.098523290102
aF23666.39763336018
aF7798.798440240315
aF234.90004698000902
aF1470.5997058800608
aF9800.799019920094
aF14988.594004562412
aF2742.9002742900307
aF1634.6998365300203
aF7422.601484520303
aF3113.7996886200303
aF16510.295046911495
aF3960.701584280626
aF3221.7983891008116
aF3296.6000000000004
aF326.9998365000821
aF5354.099999999999
aF2470.39752960247
aF3577.40107322032
aF1687.79983122002
aF1134.8
asS'Kytococcus'
p805
(lp806
F0.0
aF0.0
aF0.0
aF0.0
aF0.0
aF0.0
aF0.0
aF0.0
aF0.0
aF0.0
aF0.0
aF0.0
aF0.0
aF0.0
aF0.0
aF0.0
aF0.0
aF0.0
aF0.0
aF0.0
aF0.0
aF0.0
asS'Alkalibacillus'
p807
(lp808
F0.0
aF0.0
aF0.0
aF0.0
aF0.0
aF0.0
aF0.0
aF0.0
aF0.0
aF0.0
aF0.0
aF0.0
aF0.0
aF0.0
aF0.0
aF0.0
aF0.0
aF0.0
aF0.0
aF0.0
aF0.0
aF0.0
asS'Methanococcus'
p809
(lp810
F0.0
aF0.0
aF0.0
aF0.0
aF0.0
aF0.0
aF0.0
aF0.0
aF0.0
aF0.0
aF0.0
aF0.0
aF0.0
aF0.0
aF0.0
aF0.0
aF2.399998800000601
aF0.0
aF0.0
aF0.0
aF0.0
aF0.0
asS'Blastomonas'
p811
(lp812
F0.0
aF0.0
aF0.0
aF0.0
aF0.0
aF0.0
aF0.0
aF0.0
aF0.0
aF0.0
aF0.0
aF0.0
aF0.0
aF0.0
aF0.0
aF0.0
aF0.0
aF0.0
aF0.0
aF0.0
aF0.0
aF0.0
asS'Centipeda'
p813
(lp814
F0.0
aF0.0
aF2.999999700000027
aF0.0
aF35.8000071600014
aF0.0
aF1.4999998500000093
aF0.0
aF0.0
aF0.0
aF1.4000002800000606
aF0.0
aF0.0
aF0.0
aF0.0
aF0.0
aF0.0
aF0.0
aF0.0
aF0.0
aF0.0
aF0.0
asS'Megamonas'
p815
(lp816
F25.800002580000307
aF0.0
aF1.3999998600000088
aF0.0
aF35790.8071581614
aF13.599997280000506
aF194326.0805673919
aF19022.492391003016
aF15490.001549000204
aF0.0
aF23.30000466000091
aF17.4999982500002
aF22.299993310001994
aF20.800008320003283
aF6.599996700001654
aF268428.70000000007
aF0.0
aF287595.8
aF51670.148329851705
aF67100.820130246
aF0.0
aF43.699999999999996
asS'Allobaculum'
p817
(lp818
F0.0
aF0.0
aF0.0
aF0.0
aF0.0
aF8.499998300000344
aF0.0
aF0.0
aF0.0
aF0.0
aF3.700000740000151
aF0.0
aF2.4999992500002297
aF8.700003480001383
aF0.0
aF0.0
aF2.199998900000551
aF0.0
aF0.0
aF1.30000039000012
aF0.0
aF7.9
asS'Coriobacteriaceae_noname'
p819
(lp820
F0.0
aF109.29998907000102
aF0.0
aF917.6998164600375
aF4.800000960000189
aF6.099998780000242
aF11.199998880000095
aF100.59995976001608
aF36.500003650000416
aF23.099997690000205
aF112.90002258000504
aF102.19998978000102
aF292.19991234002595
aF0.9000003600001432
aF195.2999023500491
aF3.000000000000001
aF0.0
aF0.0
aF380.19961980038
aF168.300050490015
aF33.099996690000296
aF160.8
asS'Candidatus_Sulcia'
p821
(lp822
F0.0
aF0.0
aF0.0
aF0.0
aF0.0
aF0.0
aF0.0
aF0.0
aF0.0
aF0.0
aF0.0
aF0.0
aF0.0
aF0.0
aF0.0
aF0.0
aF0.0
aF0.0
aF0.0
aF0.0
aF0.0
aF0.0
asS'Hafnia'
p823
(lp824
F0.0
aF0.0
aF0.0
aF0.0
aF0.0
aF0.0
aF0.0
aF0.0
aF0.0
aF0.0
aF0.0
aF0.0
aF0.0
aF0.0
aF0.0
aF0.0
aF0.0
aF0.0
aF0.0
aF0.0
aF0.0
aF0.0
asS'Fructobacillus'
p825
(lp826
F0.0
aF0.0
aF0.0
aF0.0
aF0.0
aF0.0
aF0.0
aF0.0
aF0.0
aF0.0
aF0.0
aF0.0
aF0.0
aF0.0
aF0.0
aF0.0
aF0.0
aF0.0
aF0.0
aF0.0
aF0.0
aF0.0
asS'Catonella'
p827
(lp828
F0.0
aF0.0
aF7.799999220000072
aF0.0
aF8.90000178000035
aF14.099997180000607
aF32.29999677000029
aF7.499997000001206
aF0.0
aF19.599998040000205
aF93.80001876000374
aF1.7999998200000202
aF0.0
aF281.50011260004476
aF0.0
aF0.0
aF11.899994050003006
aF0.0
aF3.3999966000034005
aF3.9000011700003503
aF216.199978380002
aF379.2
asS'Brachyspira'
p829
(lp830
F0.0
aF0.0
aF0.0
aF0.0
aF6662.80133256027
aF0.0
aF0.0
aF0.0
aF0.0
aF0.0
aF0.0
aF0.0
aF0.0
aF0.8000003200001272
aF2.7999986000007016
aF20.200000000000003
aF0.0
aF0.0
aF0.0
aF0.0
aF0.0
aF0.0
asS'Rickettsia'
p831
(lp832
F0.0
aF0.0
aF0.0
aF0.0
aF0.0
aF0.0
aF0.0
aF0.0
aF0.0
aF0.0
aF0.0
aF0.0
aF0.0
aF0.0
aF0.0
aF0.0
aF0.0
aF0.0
aF0.0
aF0.0
aF0.0
aF0.0
asS'Thermodesulfobacterium'
p833
(lp834
F0.0
aF0.0
aF0.0
aF0.0
aF0.0
aF0.0
aF0.0
aF0.0
aF0.0
aF0.0
aF0.0
aF0.0
aF0.0
aF0.0
aF0.0
aF0.0
aF0.0
aF0.0
aF0.0
aF0.0
aF0.0
aF0.0
asS'Comamonas'
p835
(lp836
F0.0
aF0.0
aF0.0
aF0.0
aF0.0
aF0.0
aF0.0
aF0.0
aF0.0
aF0.0
aF0.0
aF0.0
aF0.0
aF0.0
aF0.0
aF0.0
aF0.0
aF0.0
aF0.0
aF0.0
aF0.0
aF0.0
asS'Morganella'
p837
(lp838
F56.400005640000614
aF0.0
aF0.0
aF0.0
aF88.4000176800035
aF0.0
aF0.0
aF0.0
aF0.0
aF0.0
aF0.0
aF0.0
aF0.0
aF0.0
aF0.0
aF2.0000000000000004
aF10.799994600002703
aF0.0
aF0.0
aF0.0
aF0.0
aF0.0
asS'Natronorubrum'
p839
(lp840
F0.0
aF0.0
aF0.0
aF0.0
aF0.0
aF0.0
aF0.0
aF0.0
aF0.0
aF0.0
aF0.0
aF0.0
aF0.0
aF0.0
aF0.0
aF0.0
aF0.0
aF0.0
aF0.0
aF0.0
aF0.0
aF0.0
asS'Oribacterium'
p841
(lp842
F3.2000003200000307
aF117.89998821000101
aF44.399995560000356
aF72.19998556000294
aF2684.9005369801102
aF10.699997860000405
aF45.199995480000375
aF0.0
aF46.000004600000516
aF389.2999610700041
aF2.900000580000121
aF304.199969580003
aF54.99998350000489
aF82.60003304001313
aF115.09994245002908
aF390.6000000000001
aF84.09995795002102
aF54.0
aF24.4999755000245
aF50.1000150300045
aF12.199998780000099
aF18.8
asS'Gemmatimonas'
p843
(lp844
F0.0
aF0.0
aF0.0
aF0.0
aF0.0
aF0.0
aF0.0
aF0.0
aF0.0
aF0.0
aF0.0
aF0.0
aF0.0
aF0.0
aF0.0
aF0.0
aF0.0
aF0.0
aF0.0
aF0.0
aF0.0
aF0.0
asS'Oscillatoria'
p845
(lp846
F0.0
aF0.0
aF0.0
aF0.0
aF0.0
aF0.0
aF0.0
aF0.0
aF0.0
aF0.0
aF0.0
aF0.0
aF0.0
aF0.0
aF0.0
aF0.0
aF0.0
aF0.0
aF0.0
aF0.0
aF0.0
aF0.0
asS'Methanolobus'
p847
(lp848
F0.0
aF0.0
aF0.0
aF0.0
aF0.0
aF0.0
aF0.0
aF0.0
aF0.0
aF0.0
aF0.0
aF0.0
aF0.0
aF0.0
aF0.0
aF0.0
aF0.0
aF0.0
aF0.0
aF0.0
aF0.0
aF0.0
asS'Fusobacterium'
p849
(lp850
F0.0
aF188.099981190002
aF4.899999510000045
aF0.0
aF1159.10023182005
aF282.19994356001115
aF286.19997138000286
aF0.0
aF6.800000680000073
aF183.09998169000204
aF0.0
aF25.4999974500003
aF3.2999990100002994
aF17.100006840002685
aF10.499994750002607
aF6461.200000000002
aF431.99978400010815
aF8903.7
aF19.2999807000193
aF26.3000078900024
aF170.299982970002
aF9.799999999999999
asS'Leptotrichia'
p851
(lp852
F0.0
aF29.7999970200003
aF2.399999760000018
aF0.0
aF209.500041900008
aF19.599996080000807
aF1.6999998300000192
aF30.499987800004924
aF0.0
aF33.99999660000031
aF0.0
aF92.7999907200009
aF54.99998350000489
aF4.400001760000697
aF18.599990700004714
aF5.300000000000002
aF0.0
aF2.5
aF3.2999967000033004
aF6.7000020100006
aF31.1999968800003
aF0.0
asS'Methanoplanus'
p853
(lp854
F0.0
aF0.0
aF0.0
aF0.0
aF0.0
aF0.0
aF0.0
aF0.0
aF0.0
aF0.0
aF0.0
aF0.0
aF0.0
aF0.0
aF0.0
aF0.0
aF0.0
aF0.0
aF0.0
aF0.0
aF0.0
aF0.0
asS'Methylomonas'
p855
(lp856
F0.0
aF0.0
aF0.0
aF0.0
aF0.0
aF0.0
aF0.0
aF0.0
aF0.0
aF0.0
aF0.0
aF0.0
aF0.0
aF0.0
aF0.0
aF0.0
aF0.0
aF0.0
aF0.0
aF0.0
aF0.0
aF0.0
asS'C2likevirus'
p857
(lp858
F0.0
aF0.0
aF0.0
aF0.0
aF0.0
aF0.0
aF0.0
aF0.0
aF0.0
aF0.0
aF0.0
aF0.0
aF0.0
aF0.0
aF0.0
aF0.0
aF0.0
aF0.0
aF0.0
aF0.0
aF0.0
aF0.0
asS'Variovorax'
p859
(lp860
F0.0
aF0.0
aF0.0
aF0.0
aF0.0
aF0.0
aF0.0
aF0.0
aF0.0
aF0.0
aF0.0
aF0.0
aF0.0
aF0.0
aF0.0
aF0.0
aF0.0
aF0.0
aF0.0
aF0.0
aF0.0
aF0.0
asS'Cyanobium'
p861
(lp862
F0.0
aF0.0
aF0.0
aF0.0
aF0.0
aF0.0
aF0.0
aF0.0
aF0.0
aF0.0
aF0.0
aF0.0
aF0.0
aF0.0
aF0.0
aF0.0
aF0.0
aF0.0
aF0.0
aF0.0
aF0.0
aF0.0
asS'Oceanimonas'
p863
(lp864
F0.0
aF0.0
aF0.0
aF0.0
aF0.0
aF0.0
aF0.0
aF0.0
aF0.0
aF0.0
aF0.0
aF0.0
aF0.0
aF0.0
aF0.0
aF0.0
aF0.0
aF0.0
aF0.0
aF0.0
aF0.0
aF0.0
asS'Gyrovirus'
p865
(lp866
F0.0
aF0.0
aF0.0
aF0.0
aF0.0
aF0.0
aF0.0
aF0.0
aF0.0
aF0.0
aF0.0
aF0.0
aF0.0
aF0.0
aF0.0
aF0.0
aF0.0
aF0.0
aF0.0
aF0.0
aF0.0
aF0.0
asS'Salmonella'
p867
(lp868
F0.0
aF15.7999984200002
aF0.0
aF0.0
aF10.3000020600004
aF4.199999160000172
aF0.0
aF0.0
aF0.0
aF0.0
aF0.0
aF0.0
aF0.0
aF0.0
aF0.0
aF2.4000000000000004
aF0.0
aF0.0
aF0.0
aF0.0
aF0.0
aF1.9
asS'Spiroplasma'
p869
(lp870
F0.0
aF0.0
aF0.0
aF0.0
aF0.0
aF0.0
aF0.0
aF0.0
aF0.0
aF0.0
aF0.0
aF0.0
aF0.0
aF0.0
aF0.0
aF1.0000000000000002
aF0.0
aF0.0
aF0.0
aF0.0
aF0.0
aF0.0
asS'Lambdalikevirus'
p871
(lp872
F0.0
aF0.0
aF0.0
aF0.0
aF0.0
aF0.0
aF0.0
aF0.0
aF0.0
aF0.0
aF0.0
aF0.0
aF0.0
aF0.0
aF0.0
aF0.0
aF0.0
aF0.0
aF0.0
aF0.0
aF0.0
aF0.0
asS'Borrelia'
p873
(lp874
F0.0
aF0.0
aF0.0
aF0.0
aF0.0
aF0.0
aF0.0
aF0.0
aF0.0
aF0.0
aF0.0
aF0.0
aF0.0
aF0.0
aF0.0
aF0.0
aF0.0
aF0.0
aF0.0
aF0.0
aF0.0
aF0.0
asS'Nitrosopumilaceae_unclassified'
p875
(lp876
F0.0
aF0.0
aF0.0
aF0.0
aF0.0
aF0.0
aF0.0
aF0.0
aF0.0
aF0.0
aF0.0
aF0.0
aF0.0
aF0.0
aF0.0
aF0.0
aF0.0
aF0.0
aF0.0
aF0.0
aF0.0
aF0.0
asS'Coprococcus'
p877
(lp878
F55.50000555000061
aF326.599967340003
aF135.3999864600009
aF11108.497778300407
aF345.500069100014
aF4106.499178700162
aF21.19999788000019
aF2191.9991232003517
aF3034.5003034500314
aF20090.997990900207
aF6809.101361820272
aF1592.4998407500202
aF21632.093510371895
aF4454.2017816807065
aF3333.9983330008317
aF57.000000000000014
aF841.5995792002103
aF3.8
aF4949.69505030495
aF6964.90208947063
aF25711.6974288303
aF21911.6
asS'Asticcacaulis'
p879
(lp880
F0.0
aF0.0
aF0.0
aF0.0
aF0.0
aF0.0
aF0.0
aF0.0
aF0.0
aF0.0
aF0.0
aF0.0
aF0.0
aF0.0
aF0.0
aF0.0
aF0.0
aF0.0
aF0.0
aF0.0
aF0.0
aF0.0
asS'Alicyclobacillus'
p881
(lp882
F0.0
aF0.0
aF0.0
aF0.0
aF0.0
aF0.0
aF0.0
aF0.0
aF0.0
aF0.0
aF0.0
aF24.699997530000203
aF0.0
aF0.0
aF0.0
aF0.0
aF0.0
aF0.0
aF0.0
aF0.0
aF0.0
aF0.0
asS'Shuttleworthia'
p883
(lp884
F0.0
aF7.5999992400000815
aF9.699999030000091
aF0.0
aF5.500001100000221
aF26.49999470000111
aF6.299999370000057
aF0.0
aF3.300000330000031
aF64.69999353000063
aF0.0
aF0.0
aF0.0
aF7.900003160001252
aF7.099996450001774
aF0.0
aF20.199989900005008
aF13.1
aF0.0
aF0.0
aF38.2999961700004
aF4.0
asS'Avibacterium'
p885
(lp886
F0.0
aF0.0
aF0.0
aF0.0
aF0.0
aF0.0
aF0.0
aF0.0
aF0.0
aF0.0
aF0.0
aF0.0
aF0.0
aF0.0
aF0.0
aF0.0
aF0.0
aF4.199999999999999
aF0.0
aF0.0
aF0.0
aF0.0
asS'Edwardsiella'
p887
(lp888
F0.0
aF0.0
aF0.0
aF0.0
aF0.0
aF0.0
aF0.0
aF0.0
aF0.0
aF0.0
aF0.0
aF0.0
aF0.0
aF0.0
aF0.0
aF0.0
aF0.0
aF0.0
aF0.0
aF0.0
aF0.0
aF0.0
asS'Halanaerobiaceae_unclassified'
p889
(lp890
F0.0
aF0.0
aF0.0
aF0.0
aF0.0
aF0.0
aF0.0
aF0.0
aF0.0
aF0.0
aF0.0
aF0.0
aF0.0
aF0.0
aF0.0
aF0.0
aF0.0
aF0.0
aF0.0
aF0.0
aF0.0
aF0.0
asS'Peptostreptococcaceae_noname'
p891
(lp892
F45.00000450000041
aF12.999998700000102
aF65.69999343000065
aF0.0
aF0.0
aF186.19996276000708
aF72.09999279000067
aF86.39996544001387
aF2.900000290000031
aF12.199998780000103
aF0.0
aF7505.89924941007
aF1.3999995800001297
aF223.80008952003578
aF0.0
aF0.0
aF568.5997157001422
aF60.6
aF453.899546100454
aF52.100015630004705
aF0.0
aF0.0
asS'Propionimicrobium'
p893
(lp894
F0.0
aF0.0
aF0.0
aF0.0
aF0.0
aF0.0
aF0.0
aF0.0
aF0.0
aF0.0
aF0.0
aF0.0
aF0.0
aF0.0
aF0.0
aF0.0
aF0.0
aF0.0
aF0.0
aF0.0
aF0.0
aF0.0
asS'Parabacteroides'
p895
(lp896
F90419.50904195092
aF21025.597897440202
aF45565.29544347046
aF99197.78016044406
aF25142.805028561
aF11864.097627180507
aF20911.097908890188
aF52708.97891640844
aF14583.101458310104
aF3014.7996985200307
aF5819.501163900231
aF44822.49551775041
aF52674.38419768469
aF74512.92980517184
aF129659.13517043208
aF55384.400000000016
aF4957.097521451242
aF61787.799999999996
aF37868.062131937906
aF16799.1050397315
aF8240.59917594008
aF31878.1
asS'Hirschia'
p897
(lp898
F0.0
aF0.0
aF0.0
aF0.0
aF0.0
aF0.0
aF0.0
aF0.0
aF0.0
aF0.0
aF0.0
aF0.0
aF0.0
aF0.0
aF0.0
aF0.0
aF0.0
aF0.0
aF0.0
aF0.0
aF0.0
aF0.0
asS'Enterococcus'
p899
(lp900
F75.80000758000081
aF3.3999996600000304
aF0.0
aF0.0
aF0.0
aF242.39995152001012
aF83.39999166000077
aF249.1999003200402
aF8.700000870000093
aF87.09999129000093
aF13.800002760000504
aF0.0
aF1274.1996177401097
aF0.0
aF0.0
aF1268.2000000000003
aF0.0
aF0.0
aF2290.5977094022905
aF0.0
aF165.799983420002
aF10.8
asS'Holophaga'
p901
(lp902
F0.0
aF0.0
aF0.0
aF0.0
aF0.0
aF0.0
aF0.0
aF0.0
aF0.0
aF0.0
aF0.0
aF0.0
aF0.0
aF0.0
aF0.0
aF0.0
aF0.0
aF0.0
aF0.0
aF0.0
aF0.0
aF0.0
asS'Saccharomyces'
p903
(lp904
F0.0
aF0.0
aF0.0
aF0.0
aF0.0
aF0.0
aF32.79999672000029
aF0.0
aF3.6000003600000414
aF0.0
aF0.0
aF0.0
aF6.799997960000608
aF0.0
aF1.2999993500003209
aF3.2000000000000006
aF0.0
aF0.0
aF0.0
aF0.0
aF0.0
aF26.299999999999997
asS'Imtechella'
p905
(lp906
F0.0
aF0.0
aF0.0
aF0.0
aF0.0
aF0.0
aF0.0
aF0.0
aF0.0
aF0.0
aF0.0
aF0.0
aF0.0
aF0.0
aF0.0
aF0.0
aF0.0
aF0.0
aF0.0
aF0.0
aF0.0
aF0.0
asS'Clostridiales_Family_XIII_Incertae_Sedis_unclassified'
p907
(lp908
F0.0
aF39.1999960800004
aF0.0
aF71.89998562000294
aF269.800053960011
aF60.69998786000243
aF30.69999693000029
aF58.999976400009444
aF0.0
aF223.19997768000204
aF0.0
aF0.0
aF0.0
aF17.700007080002784
aF73.49996325001844
aF33.80000000000001
aF0.0
aF96.89999999999999
aF118.99988100011902
aF50.900015270004594
aF229.499977050002
aF125.89999999999999
asS'Candidatus_Saccharibacteria_noname_unclassified'
p909
(lp910
F0.0
aF0.0
aF0.0
aF0.0
aF0.0
aF0.0
aF0.0
aF0.0
aF0.0
aF0.0
aF0.0
aF0.0
aF61.89998143000558
aF0.0
aF0.0
aF0.0
aF0.0
aF0.0
aF0.0
aF0.0
aF0.0
aF0.0
asS'Ralstonia'
p911
(lp912
F0.0
aF0.0
aF0.0
aF0.0
aF0.0
aF0.0
aF0.0
aF0.0
aF0.0
aF0.0
aF0.0
aF2.6999997300000302
aF0.0
aF0.0
aF0.0
aF0.0
aF0.0
aF0.0
aF2.5999974000026
aF0.0
aF48.4999951500005
aF0.0
asS'Alcanivorax'
p913
(lp914
F0.0
aF0.0
aF0.0
aF0.0
aF0.0
aF0.0
aF0.0
aF0.0
aF0.0
aF0.0
aF0.0
aF0.0
aF0.0
aF0.0
aF0.0
aF0.0
aF0.0
aF0.0
aF0.0
aF0.0
aF0.0
aF0.0
asS'Dehalobacter'
p915
(lp916
F0.0
aF0.0
aF0.0
aF0.0
aF0.0
aF0.0
aF0.0
aF0.0
aF0.0
aF0.0
aF0.0
aF0.0
aF0.0
aF0.0
aF0.0
aF0.0
aF0.0
aF0.0
aF0.0
aF0.0
aF0.0
aF0.0
asS'Epsilon15likevirus'
p917
(lp918
F0.0
aF0.0
aF20.999997900000178
aF0.0
aF0.0
aF0.0
aF0.0
aF0.0
aF168.90001689000206
aF0.0
aF0.0
aF0.0
aF0.0
aF6.400002560001014
aF0.0
aF0.0
aF0.0
aF10.7
aF0.0
aF74.7000224100067
aF0.0
aF0.0
asS'Weissella'
p919
(lp920
F0.0
aF0.0
aF0.0
aF0.0
aF0.0
aF0.0
aF6.899999310000067
aF0.0
aF0.0
aF0.0
aF0.0
aF0.0
aF0.0
aF0.0
aF439.8997800501103
aF0.0
aF8.199995900002053
aF0.0
aF0.0
aF2.8000008400002496
aF83.7999916200008
aF0.0
asS'Bilophila'
p921
(lp922
F4051.000405100041
aF9579.399042060102
aF85.19999148000083
aF3705.599258880152
aF780.3001560600311
aF494.79990104002025
aF7964.8992035100755
aF7821.896871241256
aF2371.700237170021
aF5940.999405900061
aF2524.800504960101
aF2721.59972784003
aF7554.397733680677
aF51.900020760008246
aF229.79988510005714
aF4910.700000000001
aF954.5995227002393
aF8301.0
aF5096.194903805101
aF3338.2010014603
aF0.0
aF3504.5
asS'Limnohabitans'
p923
(lp924
F0.0
aF0.0
aF0.0
aF0.0
aF0.0
aF0.0
aF0.0
aF0.0
aF0.0
aF0.0
aF0.0
aF0.0
aF0.0
aF0.0
aF0.0
aF0.0
aF0.0
aF0.0
aF0.0
aF0.0
aF0.0
aF0.0
asS'Caldicellulosiruptor'
p925
(lp926
F0.0
aF0.0
aF0.0
aF0.0
aF0.0
aF0.0
aF0.0
aF0.0
aF0.0
aF0.0
aF0.0
aF0.0
aF0.0
aF0.0
aF0.0
aF0.0
aF0.0
aF0.0
aF0.0
aF0.0
aF0.0
aF0.0
asS'Melissococcus'
p927
(lp928
F0.0
aF0.0
aF0.0
aF0.0
aF0.0
aF0.0
aF0.0
aF0.0
aF0.0
aF0.0
aF0.0
aF0.0
aF0.0
aF0.0
aF0.0
aF0.0
aF0.0
aF0.0
aF0.0
aF0.0
aF0.0
aF0.0
asS'Pectobacterium'
p929
(lp930
F3.800000380000041
aF0.0
aF0.0
aF0.0
aF0.0
aF0.0
aF0.0
aF0.0
aF0.0
aF0.0
aF3.100000620000121
aF4.99999950000005
aF0.0
aF0.0
aF0.0
aF0.0
aF0.0
aF1.7999999999999998
aF0.0
aF0.0
aF0.0
aF0.0
asS'Leptospira'
p931
(lp932
F0.0
aF0.0
aF0.0
aF0.0
aF0.0
aF0.0
aF0.0
aF0.0
aF0.0
aF0.0
aF0.0
aF0.0
aF0.0
aF0.0
aF0.0
aF0.0
aF0.0
aF0.0
aF0.0
aF0.0
aF0.0
aF0.0
asS'Butyricimonas'
p933
(lp934
F7.500000750000082
aF32.8999967100003
aF1.199999880000009
aF25.499994900001017
aF12.0000024000005
aF2.599999480000101
aF0.0
aF30.299987880004828
aF25.90000259000031
aF0.0
aF5.5000011000002225
aF21.3999978600002
aF36.89998893000329
aF0.0
aF52.09997395001303
aF124.40000000000002
aF0.0
aF1.2
aF9.299990700009301
aF31.700009510002804
aF0.0
aF14.399999999999999
asS'Leptotrichiaceae_unclassified'
p935
(lp936
F0.0
aF0.0
aF0.0
aF0.0
aF283.30005666001097
aF0.0
aF14.599998540000092
aF0.0
aF0.0
aF0.0
aF0.0
aF28.9999971000003
aF0.0
aF0.0
aF0.0
aF0.0
aF0.0
aF0.0
aF0.0
aF0.0
aF0.0
aF0.0
asS'Marinitoga'
p937
(lp938
F0.0
aF0.0
aF0.0
aF0.0
aF0.0
aF0.0
aF0.0
aF0.0
aF0.0
aF0.0
aF0.0
aF0.0
aF0.0
aF0.0
aF0.0
aF0.0
aF0.0
aF0.0
aF0.0
aF0.0
aF0.0
aF0.0
asS'Pediococcus'
p939
(lp940
F0.0
aF0.0
aF0.0
aF0.0
aF0.0
aF0.0
aF0.0
aF0.0
aF0.0
aF0.0
aF0.0
aF0.0
aF0.0
aF0.0
aF0.0
aF0.0
aF57.39997130001442
aF0.0
aF0.0
aF0.0
aF0.0
aF0.0
asS'Geodermatophilaceae_unclassified'
p941
(lp942
F0.0
aF0.0
aF0.0
aF0.0
aF0.0
aF0.0
aF0.0
aF0.0
aF0.0
aF0.0
aF0.0
aF0.0
aF0.0
aF0.0
aF0.0
aF0.0
aF0.0
aF0.0
aF0.0
aF0.0
aF0.0
aF0.0
asS'Alcaligenes'
p943
(lp944
F0.0
aF0.0
aF0.0
aF0.0
aF0.0
aF0.0
aF0.0
aF0.0
aF0.0
aF0.0
aF0.0
aF0.0
aF0.0
aF0.0
aF0.0
aF0.0
aF0.0
aF0.0
aF0.0
aF0.0
aF0.0
aF0.0
asS'Syntrophobotulus'
p945
(lp946
F0.0
aF0.0
aF0.0
aF0.0
aF0.0
aF0.0
aF0.0
aF0.0
aF0.0
aF0.0
aF0.0
aF0.0
aF0.0
aF0.0
aF0.0
aF0.0
aF0.0
aF0.0
aF0.0
aF0.0
aF0.0
aF0.0
asS'Nitrosococcus'
p947
(lp948
F0.0
aF0.0
aF0.0
aF0.0
aF0.0
aF0.0
aF0.0
aF0.0
aF0.0
aF0.0
aF0.0
aF0.0
aF0.0
aF0.0
aF0.0
aF0.0
aF0.0
aF0.0
aF0.0
aF0.0
aF0.0
aF0.0
asS'Metascardovia'
p949
(lp950
F0.0
aF0.0
aF0.0
aF0.0
aF0.0
aF0.0
aF0.0
aF0.0
aF0.0
aF0.0
aF0.0
aF0.0
aF0.0
aF0.0
aF0.0
aF0.0
aF0.0
aF0.0
aF0.0
aF0.0
aF0.0
aF0.0
asS'Providencia'
p951
(lp952
F0.0
aF0.0
aF0.0
aF0.0
aF0.0
aF0.0
aF0.0
aF0.0
aF0.0
aF0.0
aF0.0
aF0.0
aF0.0
aF0.0
aF0.0
aF0.0
aF0.0
aF0.0
aF0.0
aF0.0
aF0.0
aF0.0
asS'Tropheryma'
p953
(lp954
F0.0
aF0.0
aF0.0
aF0.0
aF0.0
aF0.0
aF0.0
aF0.0
aF0.0
aF0.0
aF0.0
aF0.0
aF0.0
aF0.0
aF0.0
aF0.0
aF0.0
aF0.0
aF0.0
aF0.0
aF0.0
aF0.0
asS'Sodalis'
p955
(lp956
F0.0
aF0.0
aF0.0
aF0.0
aF0.0
aF0.0
aF0.0
aF0.0
aF0.0
aF0.0
aF0.0
aF0.0
aF0.0
aF0.0
aF0.0
aF0.0
aF0.0
aF0.0
aF0.0
aF0.0
aF0.0
aF0.0
asS'Clostridiales_noname'
p957
(lp958
F260.6000260600031
aF916.1999083800091
aF370.69996293000366
aF298.8999402200122
aF65.0000130000026
aF140.19997196000605
aF46.499995350000475
aF54.89997804000885
aF51.20000512000051
aF335.49996645000306
aF146.40002928000604
aF48.49999515000051
aF1030.6996907900898
aF77.70003108001232
aF83.59995820002095
aF310.1000000000001
aF324.3998378000811
aF2.7
aF231.39976860023103
aF80.7000242100073
aF241.799975820002
aF189.8
asS'Halobiforma'
p959
(lp960
F0.0
aF0.0
aF0.0
aF0.0
aF0.0
aF0.0
aF0.0
aF0.0
aF0.0
aF0.0
aF0.0
aF0.0
aF0.0
aF0.0
aF0.0
aF0.0
aF0.0
aF0.0
aF0.0
aF0.0
aF0.0
aF0.0
asS'Stomatobaculum'
p961
(lp962
F0.0
aF6.09999939000006
aF3.899999610000036
aF30.699993860001218
aF351.80007036001405
aF11.399997720000506
aF38.89999611000038
aF0.0
aF5.200000520000052
aF10.799998920000103
aF2.500000500000101
aF240.29997597000204
aF3.6999988900003293
aF0.0
aF1.899999050000481
aF37.800000000000004
aF31.499984250007913
aF7.9
aF8.699991300008701
aF11.8000035400011
aF21.0999978900002
aF9.6
asS'Anoxybacillus'
p963
(lp964
F0.0
aF0.0
aF0.0
aF0.0
aF0.0
aF0.0
aF0.0
aF0.0
aF0.0
aF0.0
aF0.0
aF0.0
aF0.0
aF0.0
aF0.0
aF0.0
aF0.0
aF0.0
aF0.0
aF0.0
aF0.0
aF0.0
asS'Paracoccus'
p965
(lp966
F0.0
aF0.0
aF0.0
aF0.0
aF0.0
aF0.0
aF0.0
aF0.0
aF0.0
aF0.0
aF0.0
aF0.0
aF0.0
aF0.0
aF0.0
aF0.0
aF0.0
aF0.0
aF0.0
aF0.0
aF0.0
aF0.0
asS'Brevibacillus'
p967
(lp968
F0.0
aF0.0
aF0.0
aF0.0
aF0.0
aF0.0
aF0.0
aF0.0
aF0.0
aF0.0
aF0.0
aF0.0
aF0.0
aF0.0
aF0.0
aF0.0
aF0.0
aF0.0
aF0.0
aF0.0
aF0.0
aF0.0
asS'Achromobacter'
p969
(lp970
F0.0
aF0.0
aF7.199999280000063
aF0.0
aF0.0
aF0.0
aF0.0
aF0.0
aF0.0
aF0.0
aF0.0
aF0.0
aF0.0
aF0.0
aF0.0
aF0.0
aF0.0
aF0.0
aF0.0
aF0.0
aF0.0
aF0.0
asS'Varibaculum'
p971
(lp972
F8.40000084000008
aF0.0
aF0.0
aF0.0
aF3.90000078000016
aF4.999999000000202
aF3.899999610000038
aF0.0
aF0.0
aF7.799999220000082
aF0.0
aF4.799999520000051
aF0.0
aF0.0
aF0.0
aF0.0
aF0.0
aF0.0
aF0.0
aF0.0
aF160.199983980002
aF8.399999999999999
asS'Pseudonocardia'
p973
(lp974
F0.0
aF0.0
aF0.0
aF0.0
aF0.0
aF0.0
aF0.0
aF0.0
aF0.0
aF0.0
aF0.0
aF0.0
aF0.0
aF0.0
aF0.0
aF0.0
aF0.0
aF0.0
aF0.0
aF0.0
aF0.0
aF0.0
asS'Granulicatella'
p975
(lp976
F15.700001570000206
aF23.899997610000202
aF88.79999112000083
aF209.19995816000812
aF1369.0002738000499
aF525.1998949600212
aF272.9999727000029
aF4.699998120000754
aF52.900005290000514
aF1169.2998830700103
aF48.200009640001916
aF577.0999422900061
aF114.69996559000998
aF80.10003204001272
aF325.09983745008117
aF332.4000000000001
aF195.89990205004906
aF485.59999999999997
aF382.59961740038307
aF156.400046920014
aF1234.59987654001
aF152.39999999999998
asS'Meiothermus'
p977
(lp978
F0.0
aF0.0
aF3.0999996900000273
aF0.0
aF0.0
aF3.3999993200001413
aF1.4999998500000093
aF0.0
aF0.0
aF0.0
aF0.0
aF74.89999251000071
aF0.0
aF1.2000004800001889
aF0.0
aF1.5000000000000004
aF2.599998700000651
aF0.0
aF37.499962500037505
aF0.0
aF13.699998630000099
aF1.9
asS'Citrobacter'
p979
(lp980
F1.9000001900000205
aF65.4999934500007
aF0.0
aF10.199997960000406
aF0.0
aF1054.3997891200406
aF10.699998930000094
aF2840.8988636404524
aF0.0
aF0.0
aF2874.500574900111
aF3.8999996100000405
aF0.0
aF0.0
aF88.99995550002225
aF374.1000000000001
aF8.399995800002104
aF7.700000000000001
aF0.0
aF2.8000008400002496
aF8.79999912000009
aF108.0
asS'Brucella'
p981
(lp982
F0.0
aF0.0
aF0.0
aF0.0
aF0.0
aF0.0
aF0.0
aF0.0
aF0.0
aF0.0
aF0.0
aF0.0
aF0.0
aF0.0
aF0.0
aF0.0
aF0.0
aF0.0
aF0.0
aF0.0
aF0.0
aF0.0
asS'Subdoligranulum'
p983
(lp984
F1235.5001235500101
aF60266.29397337061
aF48083.49519165045
aF35267.89294642142
aF84063.4168126834
aF39314.39213712162
aF6138.799386120057
aF41817.183273126735
aF10499.801049980104
aF60324.59396754061
aF82676.31653526334
aF4116.2995883700405
aF101829.26945121898
aF7029.902811961114
aF15221.292389353808
aF52317.20000000001
aF17345.891327054305
aF21633.1
aF27099.672900327103
aF32371.909711572902
aF72864.1927135807
aF58928.9
asS'Shimwellia'
p985
(lp986
F0.0
aF0.0
aF0.0
aF0.0
aF0.0
aF0.0
aF0.0
aF0.0
aF0.0
aF0.0
aF0.0
aF0.0
aF0.0
aF0.0
aF0.0
aF0.0
aF0.0
aF0.0
aF0.0
aF0.0
aF0.0
aF0.0
asS'Massilia'
p987
(lp988
F0.0
aF0.0
aF0.0
aF0.0
aF0.0
aF0.0
aF0.0
aF0.0
aF0.0
aF0.0
aF0.0
aF0.0
aF0.0
aF0.0
aF0.0
aF0.0
aF0.0
aF0.0
aF0.0
aF0.0
aF0.0
aF0.0
asS'Cellulosilyticum'
p989
(lp990
F0.0
aF0.0
aF0.0
aF0.0
aF0.0
aF0.0
aF0.0
aF0.0
aF0.0
aF0.0
aF0.0
aF0.0
aF0.0
aF0.0
aF0.0
aF0.0
aF0.0
aF0.0
aF0.0
aF0.0
aF0.0
aF0.0
asS'Desulfobacter'
p991
(lp992
F0.0
aF0.0
aF0.0
aF0.0
aF0.0
aF0.0
aF0.0
aF0.0
aF0.0
aF0.0
aF0.0
aF0.0
aF0.0
aF0.0
aF0.0
aF0.0
aF0.0
aF0.0
aF0.0
aF0.0
aF0.0
aF0.0
asS'Yualikevirus'
p993
(lp994
F0.0
aF0.0
aF0.0
aF0.0
aF0.0
aF0.0
aF0.0
aF0.0
aF0.0
aF0.0
aF0.0
aF0.0
aF0.0
aF0.0
aF0.0
aF0.0
aF0.0
aF0.0
aF0.0
aF0.0
aF0.0
aF0.0
asS'Sebaldella'
p995
(lp996
F0.0
aF0.0
aF0.0
aF0.0
aF0.0
aF0.0
aF0.0
aF0.0
aF0.0
aF0.0
aF0.0
aF0.0
aF0.0
aF0.0
aF0.0
aF0.0
aF0.0
aF0.0
aF0.0
aF0.0
aF0.0
aF0.0
asS'Acidobacteriaceae_unclassified'
p997
(lp998
F0.0
aF0.0
aF0.0
aF234.09995318000912
aF0.0
aF0.0
aF0.0
aF0.0
aF0.0
aF0.0
aF0.0
aF0.0
aF0.0
aF0.0
aF164.9999175000411
aF0.0
aF0.0
aF0.0
aF0.0
aF0.0
aF0.0
aF0.0
asS'Alishewanella'
p999
(lp1000
F0.0
aF0.0
aF0.0
aF0.0
aF0.0
aF0.0
aF0.0
aF0.0
aF0.0
aF0.0
aF0.0
aF0.0
aF0.0
aF0.0
aF1.999999000000501
aF0.0
aF0.0
aF0.0
aF0.0
aF0.0
aF0.0
aF0.0
asS'Lachnospiraceae_noname'
p1001
(lp1002
F8393.200839320083
aF16002.998399700204
aF5192.299480770045
aF11252.797749440506
aF43846.7087693417
aF5163.898967220212
aF6104.8993895100575
aF3980.7984076806433
aF1533.2001533200205
aF11696.598830340103
aF8593.401718680343
aF33191.796680820305
aF21603.393518981895
aF12138.70485548189
aF8028.295985852015
aF22576.800000000007
aF1931.3990343004807
aF11633.599999999999
aF25968.574031426
aF5904.901771470531
aF16095.2983904702
aF13155.0
asS'Methylophaga'
p1003
(lp1004
F0.0
aF0.0
aF0.0
aF0.0
aF0.0
aF0.0
aF0.0
aF0.0
aF0.0
aF0.0
aF0.0
aF0.0
aF0.0
aF0.0
aF0.0
aF0.0
aF0.0
aF0.0
aF0.0
aF0.0
aF0.0
aF0.0
asS'Enterorhabdus'
p1005
(lp1006
F0.0
aF3.2999996700000307
aF0.0
aF50.999989800002034
aF0.0
aF3.0999993800001215
aF17.89999821000019
aF12.19999512000201
aF0.0
aF27.199997280000304
aF27.80000556000111
aF0.0
aF6.699997990000598
aF0.0
aF13.399993300003407
aF0.0
aF0.0
aF8.5
aF14.999985000015002
aF2.8000008400002496
aF26.2999973700003
aF34.5
asS'Oxalobacter'
p1007
(lp1008
F0.0
aF0.0
aF0.0
aF0.0
aF0.0
aF0.0
aF0.0
aF0.0
aF0.0
aF18.199998180000204
aF0.0
aF0.0
aF8.599997420000767
aF0.0
aF0.0
aF0.0
aF0.0
aF0.0
aF5.599994400005601
aF0.0
aF0.0
aF0.0
asS'Haloferax'
p1009
(lp1010
F0.0
aF0.0
aF0.0
aF0.0
aF0.0
aF0.0
aF0.0
aF0.0
aF0.0
aF0.0
aF0.0
aF0.0
aF0.0
aF0.0
aF0.0
aF0.0
aF0.0
aF0.0
aF0.0
aF0.0
aF0.0
aF0.0
asS'Xanthomonadaceae_noname'
p1011
(lp1012
F0.0
aF0.0
aF0.0
aF0.0
aF0.0
aF0.0
aF0.0
aF0.0
aF0.0
aF0.0
aF0.0
aF0.0
aF0.0
aF0.0
aF0.0
aF0.0
aF0.0
aF0.0
aF0.0
aF0.0
aF0.0
aF0.0
asS'Erysipelothrix'
p1013
(lp1014
F0.0
aF0.0
aF0.0
aF0.0
aF0.0
aF0.0
aF0.0
aF0.0
aF0.0
aF0.0
aF0.0
aF0.0
aF0.0
aF0.0
aF0.0
aF0.0
aF0.0
aF0.0
aF0.0
aF0.0
aF0.0
aF0.0
asS'Citromicrobium'
p1015
(lp1016
F0.0
aF0.0
aF0.0
aF0.0
aF0.0
aF0.0
aF0.0
aF0.0
aF0.0
aF0.0
aF0.0
aF0.0
aF0.0
aF0.0
aF0.0
aF0.0
aF0.0
aF0.0
aF0.0
aF0.0
aF0.0
aF0.0
asS'Siphoviridae_noname'
p1017
(lp1018
F0.0
aF0.0
aF0.0
aF0.0
aF0.0
aF0.0
aF0.0
aF0.0
aF0.0
aF0.0
aF0.0
aF0.0
aF0.0
aF0.0
aF0.0
aF0.0
aF0.0
aF0.0
aF0.0
aF0.0
aF0.0
aF0.0
asS'Saccharomonospora'
p1019
(lp1020
F0.0
aF0.0
aF0.0
aF0.0
aF0.0
aF0.0
aF0.0
aF0.0
aF0.0
aF0.0
aF0.0
aF0.0
aF0.0
aF0.0
aF0.0
aF0.0
aF0.0
aF0.0
aF0.0
aF0.0
aF0.0
aF0.0
assS'subclass_sl'
p1021
(dp1022
g12
(I11
I22
tp1023
sg10
(I0
I11
tp1024
ssS'norm'
p1025
F1000000.0
sS'cls'
p1026
(dp1027
S'class'
p1028
(S'post_stage0'
p1029
S'post_stage0'
p1030
S'post_stage0'
p1031
S'post_stage0'
p1032
S'post_stage0'
p1033
S'post_stage0'
p1034
S'post_stage0'
p1035
S'post_stage0'
p1036
S'post_stage0'
p1037
S'post_stage0'
p1038
g3
S'pre_stage0'
p1039
S'pre_stage0'
p1040
S'pre_stage0'
p1041
S'pre_stage0'
p1042
S'pre_stage0'
p1043
S'pre_stage0'
p1044
S'pre_stage0'
p1045
S'pre_stage0'
p1046
S'pre_stage0'
p1047
S'pre_stage0'
p1048
g5
tp1049
sS'subclass'
p1050
(lp1051
S'post_stage0_subcl'
p1052
aS'post_stage0_subcl'
p1053
aS'post_stage0_subcl'
p1054
aS'post_stage0_subcl'
p1055
aS'post_stage0_subcl'
p1056
aS'post_stage0_subcl'
p1057
aS'post_stage0_subcl'
p1058
aS'post_stage0_subcl'
p1059
aS'post_stage0_subcl'
p1060
aS'post_stage0_subcl'
p1061
ag10
aS'pre_stage0_subcl'
p1062
aS'pre_stage0_subcl'
p1063
aS'pre_stage0_subcl'
p1064
aS'pre_stage0_subcl'
p1065
aS'pre_stage0_subcl'
p1066
aS'pre_stage0_subcl'
p1067
aS'pre_stage0_subcl'
p1068
aS'pre_stage0_subcl'
p1069
aS'pre_stage0_subcl'
p1070
aS'pre_stage0_subcl'
p1071
ag12
asS'subject'
p1072
(S'10140.2'
p1073
S'10165.2'
p1074
S'10338.2'
p1075
S'10345.2'
p1076
S'10366.2'
p1077
S'10385.2'
p1078
S'10545.2'
p1079
S'10565.2'
p1080
S'10579.2'
p1081
S'10596.2'
p1082
S'10697.2'
p1083
S'10140.1'
p1084
S'10165.1'
p1085
S'10338.1'
p1086
S'10345.1'
p1087
S'10366.1'
p1088
S'10385.1'
p1089
S'10545.1'
p1090
S'10565.1'
p1091
S'10579.1'
p1092
S'10596.1'
p1093
S'10697.1'
p1094
tp1095
ss.