(dp0
S'class_sl'
p1
(dp2
S'post_stage0'
p3
(I0
I11
tp4
sS'pre_stage0'
p5
(I11
I22
tp6
ssS'class_hierarchy'
p7
(dp8
g3
(lp9
S'post_stage0_subcl'
p10
asg5
(lp11
S'pre_stage0_subcl'
p12
assS'feats'
p13
(dp14
S'ko05206_MicroRNAsincancer'
p15
(lp16
F1412.43369458495
aF1591.3039538504097
aF1681.8491053499108
aF1438.7752612814802
aF1271.2995022816497
aF1134.9241054748197
aF1242.1775656082996
aF2221.737616787711
aF1116.1186600103802
aF1523.6915336404904
aF1850.2963156736496
aF1551.881216909149
aF1885.7790379765695
aF1229.04415472659
aF2116.932350862251
aF1099.1728751216392
aF726.7442144749112
aF1125.075858257
aF2023.3190506354924
aF1480.4377876870103
aF1211.4697764995697
aF1768.5301848490312
asS'ko04728_Dopaminergicsynapse'
p17
(lp18
F0.0
aF0.0
aF0.0
aF0.0
aF0.0
aF0.0
aF0.0
aF0.0
aF0.0
aF0.0
aF0.0
aF7.347175356239436
aF0.0
aF0.0
aF0.0
aF0.0
aF0.0
aF0.0
aF0.0
aF0.0
aF0.0
aF0.0
asS'ko00680_Methanemetabolism'
p19
(lp20
F13461.054797429799
aF13994.013809729997
aF13519.400060625605
aF13036.587079581803
aF14535.246302684996
aF12516.503907134398
aF14815.897779542796
aF13492.332760133606
aF13193.0250726577
aF13411.732293865902
aF13261.084906442797
aF13412.880789090095
aF13617.005680256896
aF13365.807631066302
aF13332.076246663008
aF13609.410296264092
aF12113.622765248705
aF14146.602623361596
aF13282.494035887015
aF13613.4050947025
aF13711.938695051396
aF13328.477665658509
asS'ko02030_Bacterialchemotaxis'
p21
(lp22
F2116.1845508250503
aF2913.3341928254895
aF3063.0221778728614
aF1736.1423438436905
aF8753.876247988137
aF2015.2134297767798
aF1377.0967578940497
aF1903.4942080595308
aF2043.26293892908
aF1533.5763060991603
aF3945.308795746379
aF2372.999492552229
aF3098.6693821369995
aF4232.6622944865
aF2305.544584598151
aF2480.8348528654883
aF2352.150880257951
aF1573.7346875654396
aF5416.519876740666
aF2658.31121390039
aF1950.4250026147495
aF3296.268649556982
asS'ko05215_Prostatecancer'
p23
(lp24
F562.588552133533
aF663.3377035504528
aF662.1622023363184
aF750.5664591013311
aF529.3369184798729
aF538.0389169690379
aF692.4892700708368
aF698.5783206293213
aF736.728721677803
aF643.0058604349701
aF745.4373975565039
aF672.8029393970867
aF772.0505538919148
aF735.4095592738851
aF810.0506749253234
aF658.2433653948675
aF528.1061023907622
aF752.9431205071749
aF650.5477081510397
aF782.293484257558
aF577.0834179626638
aF706.5584911604394
asS'ko00532_Glycosaminoglycanbiosynthesis_chondroitinsulfate_dermatansulfate'
p25
(lp26
F0.0
aF0.0
aF0.0
aF0.0
aF0.0
aF0.0
aF0.0
aF0.0
aF0.0
aF0.0
aF0.0
aF0.0
aF0.0
aF0.0
aF0.0
aF0.0
aF0.0
aF0.0
aF0.0
aF0.0
aF0.0
aF0.0
asS'ko00362_Benzoatedegradation'
p27
(lp28
F2169.37672645162
aF1673.5936299561395
aF1523.3569486460308
aF1167.3098249948002
aF3776.386949589739
aF1438.6647031498696
aF810.6518759756489
aF1011.9453009423305
aF846.781951933498
aF1077.4176590102702
aF1970.7372135344394
aF2144.2114995000893
aF1566.5758540326096
aF1350.2549493789602
aF1007.4675520444605
aF1703.8513280896689
aF1478.8130879521705
aF787.6960062427478
aF1392.3570621638617
aF1389.3879067933801
aF1091.3970062634698
aF2057.026352255651
asS'ko05110_Vibriocholeraeinfection'
p29
(lp30
F0.0
aF6.440892129987729
aF0.0
aF0.0
aF0.0
aF0.0
aF0.0
aF0.0
aF0.0
aF0.0
aF0.0
aF0.0
aF0.0
aF0.0
aF0.0
aF0.7540060840974615
aF0.0
aF0.0
aF0.0
aF0.0
aF1.3763557017726298
aF0.0
asS'ko03020_RNApolymerase'
p31
(lp32
F3459.2242973938
aF3125.547830385049
aF2912.9785628161912
aF3988.2541968881615
aF4336.13683763986
aF3814.269589692859
aF3404.9508016598293
aF3145.924716446362
aF3168.92033006975
aF3330.357919277291
aF2982.7937555572694
aF3747.140367526368
aF3245.9981288130293
aF2722.7013098174402
aF3112.4186922803315
aF3097.059034729488
aF3190.607415827031
aF3445.382861895589
aF3226.343698839634
aF3405.04870312758
aF3303.892621319589
aF2927.6054724127916
asS'ko02010_ABCtransporters'
p33
(lp34
F39926.472799747
aF35858.52910105789
aF40645.07077015792
aF36368.90241836251
aF47046.68853710008
aF38987.47269575279
aF32216.007595831692
aF31033.797573678414
aF22966.737308158998
aF36304.40321147471
aF43865.36224173889
aF43690.34986463748
aF40377.91238804569
aF37692.456761745
aF31113.653589984315
aF44614.54897538167
aF29534.776948300212
aF33750.563740454396
aF44146.188358395746
aF36208.7078632782
aF40782.81077137229
aF47068.63727535013
asS'ko01051_Biosynthesisofansamycins'
p35
(lp36
F1402.94966128208
aF1343.1322729699596
aF1939.853038300071
aF1510.6749664173203
aF1372.9541025577696
aF1229.4919605996897
aF1868.2541892987497
aF1585.6295889268608
aF2395.9724517301897
aF1742.7151009620404
aF1960.6975067461094
aF1622.0371100213092
aF2036.1751972815396
aF1928.92110179788
aF1491.5172629792107
aF1623.196216887149
aF973.9875036845264
aF1974.7721078206496
aF1736.648383276002
aF1920.4102397206702
aF1835.1045840524296
aF1868.504913044321
asS'ko04962_Vasopressin_regulatedwaterreabsorption'
p37
(lp38
F0.0
aF0.0
aF0.0
aF0.0
aF0.0
aF0.0
aF0.0
aF0.0
aF0.0
aF0.0
aF0.0
aF0.0
aF0.0
aF0.0
aF0.0
aF0.0
aF0.0
aF0.0
aF0.0
aF0.0
aF0.0
aF0.0
asS'ko00980_MetabolismofxenobioticsbycytochromeP450'
p39
(lp40
F373.20185679796896
aF295.9464207117359
aF185.7407835711911
aF155.16219229553903
aF797.3203153586818
aF229.62221900865094
aF92.88469047956987
aF110.97431843250506
aF42.3309578305157
aF214.95333384941105
aF382.6753887258929
aF278.86279122058386
aF130.66742153172197
aF196.92365456671203
aF60.01129043881923
aF242.7618719235888
aF338.8289595197311
aF92.14449938444598
aF102.25487205174412
aF103.65776513265502
aF202.43168952645794
aF281.0322183219402
asS'ko04122_Sulfurrelaysystem'
p41
(lp42
F3492.97422016696
aF3620.241445012249
aF3563.4515904310515
aF3074.0521055581307
aF3977.332107731089
aF3267.603833522149
aF2810.139288903299
aF3006.1874514399915
aF1872.2610909452198
aF3775.327981366631
aF3739.524134460629
aF3577.8492258012584
aF3532.742761349079
aF3668.4100933586906
aF2512.003914559491
aF3223.1367944360777
aF2376.271597400261
aF2868.302532639509
aF3574.9552106186043
aF3195.4506505697104
aF3743.954592525339
aF4051.297883904362
asS'ko04210_Apoptosis'
p43
(lp44
F277.82286100826997
aF465.85290286754287
aF232.5599651788181
aF372.36582476579207
aF107.55407323505997
aF487.89080492978286
aF368.4413344453509
aF528.4074293161763
aF918.395877461326
aF424.27230135298913
aF141.35951188979797
aF207.1162530803289
aF221.87748117375895
aF291.55405426297904
aF611.3616000998073
aF180.2715433758599
aF796.1435757337033
aF489.0243801009148
aF195.08890508527023
aF490.264901026915
aF331.7760331615049
aF252.64238607967616
asS'ko00140_Steroidhormonebiosynthesis'
p45
(lp46
F578.2888655519939
aF392.9171786109179
aF485.1933520991702
aF154.08331592716303
aF210.37347612247595
aF92.17210818727568
aF448.9647685319989
aF636.2607101195432
aF112.912000683427
aF657.5453367816401
aF280.00936344396894
aF145.7211605366379
aF206.20684130986996
aF505.183470825121
aF185.9942258861261
aF392.5603491046807
aF50.464847311755214
aF403.19304624199094
aF273.8790796137523
aF134.16779844875
aF527.6342078541629
aF309.1878206083732
asS'ko00230_Purinemetabolism'
p47
(lp48
F35235.4140469826
aF36050.63670319849
aF34445.517155392416
aF39311.17726011931
aF33360.79248651039
aF39722.22138654739
aF36983.47129204349
aF35499.700511038216
aF37882.537729077594
aF36258.65560590091
aF35050.92969624869
aF37699.09228958958
aF36862.45553468329
aF35717.409322916305
aF38297.92907979462
aF35169.992564883076
aF36136.44718667551
aF36184.825525219094
aF35587.78452529764
aF37230.81538773601
aF35393.034611357994
aF35820.27636452872
asS'ko04964_Proximaltubulebicarbonatereclamation'
p49
(lp50
F583.4525974442411
aF366.2134440955079
aF354.8993607407301
aF258.47868661085806
aF902.1024622021648
aF180.77257533282898
aF235.50265808795297
aF503.86472321809623
aF272.978242088779
aF508.2326631836181
aF387.8839551566009
aF380.29192242114584
aF382.8119550783969
aF364.07704965325905
aF351.78008187976616
aF296.75027718583283
aF175.92153836763006
aF355.48476261009694
aF308.37310841260836
aF223.417163643585
aF395.8551746703419
aF285.1422217493232
asS'ko00604_Glycosphingolipidbiosynthesis_ganglioseries'
p51
(lp52
F1622.9632391038401
aF1904.3101558200594
aF1649.0112669011908
aF1279.1606703339303
aF847.9851015005238
aF1307.7309223297198
aF1622.0071861285496
aF2361.982747409721
aF1724.46108112174
aF2352.11155325081
aF1067.5008040006999
aF911.4453084234816
aF997.5280030314677
aF2144.85185785595
aF1040.1021779870005
aF1478.600603275819
aF1694.1858778030105
aF1636.0260245601896
aF1065.072735813361
aF1043.4115962566002
aF1745.8928668154394
aF1234.3394270353008
asS'ko04151_PI3K_Aktsignalingpathway'
p53
(lp54
F569.283842088844
aF676.6153256983918
aF672.6081104694804
aF808.1178616227802
aF1198.9422428837897
aF543.1192633171469
aF719.6773756525348
aF749.7659985948734
aF785.256954154793
aF670.5486613287852
aF858.9378027864038
aF684.4593851015786
aF916.4528189552998
aF749.803192777559
aF878.7463440570765
aF671.4861095173055
aF531.0888051268032
aF782.0831008215038
aF683.6641403391728
aF798.1240479947031
aF604.1347653198769
aF721.8265228649215
asS'ko01210_2_Oxocarboxylicacidmetabolism'
p55
(lp56
F14546.427294621699
aF14276.215661202796
aF14465.373075335507
aF14929.376515207303
aF13118.892661748298
aF14214.998256360797
aF15885.984034543595
aF14950.367041006906
aF16546.325444950602
aF14552.520764536002
aF14458.439739998696
aF13861.475391943593
aF15251.121656586596
aF14092.318611395902
aF14808.381386281706
aF14358.27093291859
aF13953.078746409705
aF14747.021972915396
aF15452.189040288218
aF15411.093844115101
aF14523.861861303996
aF14704.847596265008
asS'ko00365_Furfuraldegradation'
p57
(lp58
F0.0
aF1.0813996820514797
aF6.150766647477693
aF0.0
aF31.989514726015894
aF2.2177968302924493
aF3.5804679028516593
aF0.0
aF0.0
aF5.053303748390601
aF26.896707605906695
aF0.0
aF0.0
aF1.95621765422454
aF0.0
aF0.0
aF0.0
aF0.0
aF0.0
aF0.0
aF7.098786772294728
aF0.7508242037494065
asS'ko05168_Herpessimplexinfection'
p59
(lp60
F0.0
aF3.3534188583350195
aF0.0
aF1.9029519203811105
aF0.0
aF0.0
aF3.958358041738959
aF3.6457001903406216
aF0.0
aF3.3421325715247305
aF0.5774111578189318
aF2.789086247708989
aF6.468827367169618
aF0.0
aF0.0
aF2.6070071791993183
aF0.0
aF0.0
aF4.032030809548575
aF1.5597707954546403
aF1.2905894043216097
aF0.0
asS'ko05161_HepatitisB'
p61
(lp62
F0.0
aF3.3534188583350195
aF0.0
aF1.9029519203811105
aF0.0
aF0.0
aF3.958358041738959
aF3.6457001903406216
aF0.0
aF3.3421325715247305
aF0.5774111578189318
aF2.789086247708989
aF5.363585659381329
aF0.0
aF0.0
aF2.6070071791993183
aF0.0
aF0.0
aF4.032030809548575
aF0.0
aF0.0
aF0.0
asS'ko04614_Renin_angiotensinsystem'
p63
(lp64
F0.0
aF0.0
aF0.0
aF0.0
aF0.0
aF0.0
aF0.0
aF0.0
aF0.0
aF0.0
aF0.0
aF0.0
aF0.0
aF0.0
aF0.0
aF0.0
aF0.0
aF0.0
aF0.0
aF0.0
aF0.0
aF0.0
asS'ko00052_Galactosemetabolism'
p65
(lp66
F13775.5067714843
aF13192.771211424397
aF17228.869531658707
aF14831.640969534203
aF12377.149143014298
aF14263.120577924296
aF14220.969627825696
aF14563.862179912207
aF14315.518930865699
aF15734.482853181502
aF15149.975843390397
aF15621.046515080494
aF13803.591307396196
aF15785.686575597902
aF13007.537274487606
aF14844.31312221079
aF12903.594715328405
aF13955.665007888496
aF14870.967683910416
aF14966.376921432902
aF17419.810236209694
aF15786.229182324008
asS'ko00531_Glycosaminoglycandegradation'
p67
(lp68
F2157.33866068465
aF2387.2182516176294
aF2375.868186517671
aF1827.0982933593705
aF1186.5676061094396
aF1657.6847086506996
aF2169.4403318547293
aF2964.5888833000117
aF2037.8697361500301
aF3284.558071766741
aF1465.9736379631197
aF1318.0743158101493
aF1325.5738090356597
aF3271.9511114049005
aF1474.6497222178307
aF1884.3281446009487
aF2287.040975770501
aF2106.8942640413393
aF1530.8356521522317
aF1310.1765342683402
aF2487.3496892018793
aF1646.486722520951
asS'ko00624_Polycyclicaromatichydrocarbondegradation'
p69
(lp70
F507.774447598435
aF240.18572833919995
aF560.7799846968653
aF265.52555903244206
aF97.92790603444777
aF351.88391293248094
aF358.92419156808495
aF385.5977472250732
aF213.33983367539201
aF307.9785750329941
aF221.30309063002898
aF394.7433777229678
aF260.84635961694994
aF296.69647581852206
aF145.24328437378205
aF203.34125651107888
aF260.94894936170607
aF363.94967907155393
aF237.35039270994525
aF320.44842706705407
aF357.0813082477309
aF313.8830451654862
asS'ko05032_Morphineaddiction'
p71
(lp72
F0.0
aF0.0
aF0.0
aF0.0
aF0.0
aF0.0
aF0.0
aF0.0
aF0.0
aF0.0
aF0.0
aF0.0
aF0.0
aF0.0
aF0.0
aF0.0
aF0.0
aF0.0
aF0.0
aF0.0
aF0.0
aF0.0
asS'ko00511_Otherglycandegradation'
p73
(lp74
F7384.21488841455
aF7759.704060641518
aF9039.089365229964
aF7165.532896162282
aF5737.583312438849
aF7105.351955660769
aF7914.893763656729
aF10276.373973180205
aF10905.1065572531
aF10367.068869751303
aF7135.503338152548
aF6318.147059606197
aF5433.291735035698
aF9810.9804446593
aF6267.014718296283
aF6654.344467819726
aF8637.767334513313
aF7241.920285970508
aF6595.344454511918
aF7479.970865419311
aF9821.279418858228
aF7027.712195721374
asS'ko04726_Serotonergicsynapse'
p75
(lp76
F0.0
aF0.0
aF0.0
aF0.0
aF0.0
aF0.0
aF0.0
aF0.0
aF0.0
aF0.0
aF0.0
aF7.347175356239436
aF0.0
aF0.0
aF0.0
aF0.0
aF0.0
aF0.0
aF0.0
aF0.0
aF0.0
aF0.0
asS'ko05130_PathogenicEscherichiacoliinfection'
p77
(lp78
F0.0
aF0.0
aF0.0
aF0.0
aF0.0
aF0.0
aF0.0
aF0.0
aF0.0
aF0.0
aF0.0
aF0.0
aF0.0
aF0.0
aF0.0
aF0.0
aF0.0
aF0.0
aF0.0
aF0.0
aF0.0
aF0.0
asS'ko05132_Salmonellainfection'
p79
(lp80
F619.568668253224
aF680.4289053343867
aF437.4312720735972
aF240.57633162496106
aF2462.167841790609
aF297.0846669510409
aF270.34578287680495
aF440.89954174051826
aF486.75484068527504
aF184.57501053206403
aF608.8060990420369
aF393.9976530607178
aF470.8907758529179
aF531.034215115103
aF354.71132679731517
aF361.89853405212574
aF376.0141036925421
aF252.36587105686692
aF970.6739891451451
aF439.0621979269401
aF180.06285071112694
aF527.9510637688363
asS'ko00940_Phenylpropanoidbiosynthesis'
p81
(lp82
F3062.37579588892
aF4103.551004409279
aF4562.256185507153
aF4587.018400882961
aF1860.1065073362095
aF2452.4817708000296
aF2996.8730561900393
aF4683.212825365202
aF3342.86069947851
aF5166.989197862171
aF4071.026161427479
aF2848.8139702930685
aF3332.7613690570192
aF4130.226942090841
aF4815.820579223452
aF2564.862667902008
aF3794.3915984914715
aF1668.2532942755995
aF4063.0751925087047
aF2915.0839293786003
aF4871.172631650898
aF3538.469735534032
asS'ko05160_HepatitisC'
p83
(lp84
F0.0
aF0.0
aF0.0
aF0.0
aF0.0
aF0.0
aF0.0
aF0.0
aF0.0
aF0.0
aF0.0
aF0.0
aF1.4725321595913197
aF0.0
aF0.0
aF0.0
aF0.0
aF0.0
aF0.0
aF1.5597707954546403
aF1.2905894043216097
aF0.0
asS'ko00351_'
p85
(lp86
F11.9016655329947
aF11.825202151052299
aF13.963206069220707
aF2.250730544874181
aF4.40077504779715
aF8.444504447056078
aF5.564950099940919
aF9.742882221998885
aF9.86112083569148
aF0.0
aF8.295255480152708
aF4.333976657301248
aF4.457499366029158
aF14.255669694262702
aF6.572647474092773
aF1.0388303769538694
aF9.165398387187382
aF9.745152768341407
aF4.758363915899055
aF7.447781862697561
aF0.0
aF11.456473474936107
asS'ko04974_Proteindigestionandabsorption'
p87
(lp88
F920.015848742216
aF674.6959311306338
aF1030.4758289973604
aF704.1371347029082
aF345.2973293162319
aF747.4766165791548
aF936.8130825818467
aF809.7372860054984
aF1531.00683872868
aF880.3354413480612
aF511.0375481880019
aF562.3596620912848
aF340.4620965304969
aF965.1242929580002
aF863.3788042703394
aF505.9856629322717
aF988.7725098463833
aF910.7791556282638
aF360.3961879980564
aF649.9502685291561
aF686.0356173184939
aF502.36055500170926
asS'ko03440_Homologousrecombination'
p89
(lp90
F13420.153079011
aF15173.083004977596
aF14142.578454923907
aF16357.465525535003
aF11595.064196471098
aF15865.425387125397
aF14402.106300039297
aF15329.654710310408
aF15796.9112899705
aF14056.248909064903
aF14733.254212925896
aF15294.435779997093
aF16178.432245200196
aF14723.0578404775
aF17115.58722238401
aF13321.481769808992
aF14806.810270097805
aF14802.226598974497
aF15130.980139289917
aF15812.411122851303
aF14149.295969549295
aF14440.974233502808
asS'ko00472_D_ArginineandD_ornithinemetabolism'
p91
(lp92
F52.0701369621775
aF53.39320338400399
aF123.77696583311206
aF49.11176701068451
aF25.87415131860419
aF26.15975553461229
aF97.18025175365028
aF76.21148005657503
aF51.0913234719744
aF69.16012532831232
aF50.26504907636639
aF39.755084516950085
aF152.88103779144097
aF58.150091771324
aF48.03255424168942
aF98.18938169745684
aF47.456913992430216
aF235.44460374985894
aF80.66613523039149
aF97.3816905407904
aF92.52356923318398
aF42.88346623183123
asS'ko04510_Focaladhesion'
p93
(lp94
F0.0
aF0.0
aF0.0
aF0.0
aF0.0
aF0.0
aF0.0
aF0.0
aF0.0
aF0.0
aF0.0
aF0.0
aF0.0
aF0.0
aF0.0
aF0.0
aF0.0
aF0.0
aF0.0
aF0.0
aF0.0
aF0.0
asS'ko01220_Degradationofaromaticcompounds'
p95
(lp96
F1852.95063061715
aF1785.3056228831697
aF967.3167707354235
aF849.3674706797692
aF3655.7804742288395
aF1287.3519562221995
aF677.0621651277208
aF759.3435426024834
aF649.356672087375
aF844.5281438449832
aF1728.6946076827096
aF1885.095956015099
aF1163.9435444224298
aF953.5456783567251
aF697.7662277994743
aF1572.127488174209
aF1220.6713533691504
aF649.2375118433849
aF874.5316469792591
aF860.2778306017111
aF762.0123044334277
aF1675.049613076621
asS'ko00513_VarioustypesofN_glycanbiosynthesis'
p97
(lp98
F6.20325037266923
aF2.18997774386891
aF4.2210991190888425
aF0.0
aF0.0
aF1.8754506429534596
aF0.0
aF12.305060746398906
aF2.75663335985027
aF4.456061650295871
aF1.7448982783913796
aF4.346740424169338
aF10.629800037450899
aF10.541229955543
aF0.0
aF4.164950764298167
aF1.4395558215644104
aF8.845738477467368
aF3.9277851802309445
aF9.41201442651044
aF4.312781716907499
aF2.2165189646795116
asS'ko03018_RNAdegradation'
p99
(lp100
F8283.682723138929
aF9507.173301454708
aF8204.160383661094
aF9133.788534178082
aF8784.676540423749
aF8570.68804575488
aF8004.842196226418
aF8403.560782925724
aF9861.44345194015
aF8371.905782980662
aF7782.269751059299
aF7992.956443691516
aF7951.170527410258
aF8069.378193286052
aF9007.058681601355
aF7290.788793538505
aF9917.315189690504
aF7560.049738765588
aF7599.835607286629
aF8561.621430424972
aF7769.352695231558
aF7448.633891290095
asS'ko01053_Biosynthesisofsiderophoregroupnonribosomalpeptides'
p101
(lp102
F580.474857048004
aF648.6112670246329
aF96.19545284676565
aF254.17824293004205
aF573.1679499161119
aF502.6983552841069
aF374.8419912878009
aF242.6406680815891
aF523.899176128435
aF344.7216300806501
aF341.4800772716059
aF448.8576988443498
aF270.9120075410899
aF163.60198823782903
aF298.42501331773417
aF513.5109254469506
aF655.8964077865152
aF345.0047341323639
aF129.75903714075716
aF252.049861284134
aF277.72470271627196
aF507.4817057712693
asS'ko00524_Butirosinandneomycinbiosynthesis'
p103
(lp104
F963.99381111136
aF942.1921948015528
aF970.9994196027965
aF1052.8605133692104
aF637.3831093306019
aF991.2220232773119
aF914.2710112973257
aF1063.7465162318604
aF1135.20030155886
aF1046.4004348418302
aF1029.6802990221797
aF817.9785663041356
aF966.8407022025988
aF859.3965254049401
aF1044.8886140639704
aF947.6354944150864
aF1089.9956753949705
aF960.7726133022028
aF987.3959896239932
aF929.5523946088641
aF928.8833905457238
aF1063.3065484981007
asS'ko03040_Spliceosome'
p105
(lp106
F0.0
aF0.0
aF0.0
aF0.0
aF0.0
aF0.0
aF0.0
aF0.0
aF0.0
aF0.0
aF0.0
aF0.0
aF0.0
aF0.0
aF0.0
aF0.0
aF0.0
aF0.0
aF0.0
aF0.0
aF0.0
aF0.0
asS'ko04142_Lysosome'
p107
(lp108
F2749.26957029413
aF3152.7047444495993
aF2976.5692232816814
aF2469.1171366783906
aF2347.8357553270694
aF2001.8366349574494
aF2984.028182173249
aF3925.570367867182
aF2155.94611549955
aF4259.099588560291
aF2198.36494778983
aF1706.0032555169892
aF1905.0473326406297
aF3919.0324993181603
aF2012.4865020605307
aF2539.017730215028
aF2331.8746073223506
aF2867.4984531303194
aF2052.821408384252
aF1615.0191538865602
aF3367.893300736809
aF2240.3343336290714
asS'ko03410_Baseexcisionrepair'
p109
(lp110
F5949.51206967975
aF5661.491302343528
aF6021.817025721522
aF6057.275080590761
aF4411.4446087573
aF5753.275975475129
aF5621.890109625519
aF6260.550756940193
aF5489.29433644069
aF5943.121530481121
aF6281.705635678179
aF5857.371642854097
aF6507.157652327348
aF6131.74537096623
aF6139.092863221983
aF5997.433113134646
aF6160.211483405992
aF5801.575105155279
aF5616.656094153156
aF6062.183577786021
aF5681.552808621838
aF5749.317681425333
asS'ko04512_ECM_receptorinteraction'
p111
(lp112
F0.0
aF0.0
aF0.0
aF0.0
aF0.0
aF0.0
aF0.0
aF0.0
aF0.0
aF0.0
aF0.0
aF0.0
aF0.0
aF0.0
aF0.0
aF0.0
aF0.0
aF0.0
aF0.0
aF0.0
aF0.0
aF0.0
asS'ko04112_Cellcycle_Caulobacter'
p113
(lp114
F7025.3168352141
aF7169.776104305938
aF7591.666713363134
aF8269.924975517371
aF6149.411401773758
aF8254.636754063458
aF7474.168368689829
aF7634.435175136363
aF8526.33559323517
aF7485.181378694452
aF7626.734981386048
aF7553.671732918907
aF8024.480801349808
aF8015.22611317076
aF8654.333599997784
aF7733.008134613085
aF8328.046308292063
aF7916.795046104758
aF7730.359416032289
aF7988.34871905459
aF7836.605334713769
aF7490.869029775325
asS'ko00643_Styrenedegradation'
p115
(lp116
F397.478131064684
aF235.71569830384095
aF176.75008368804808
aF134.15192359869803
aF148.56273033799798
aF193.96551214004796
aF117.46269653311798
aF131.23314301793306
aF98.94693976868051
aF193.16909094712102
aF208.79471181943396
aF255.37979497287688
aF202.42351755605696
aF86.9114402001899
aF137.65269463161607
aF264.0865380329498
aF94.60633830927783
aF113.64043877159297
aF104.06334892826112
aF187.40242885740503
aF188.07846137628997
aF182.27852432965508
asS'ko04621_NOD_likereceptorsignalingpathway'
p117
(lp118
F562.588552133533
aF665.1105396168298
aF662.1622023363184
aF764.0352002453512
aF529.3369184798729
aF538.0389169690379
aF704.6295504305788
aF712.8367937344203
aF738.652993540019
aF644.0443793341092
aF745.4373975565039
aF672.8029393970867
aF775.2770540367808
aF735.4095592738851
aF855.6780289834625
aF658.2433653948675
aF528.1061023907622
aF763.0657975557838
aF656.8562080811428
aF782.840887255905
aF580.5892972973188
aF706.5584911604394
asS'ko00944_Flavoneandflavonolbiosynthesis'
p119
(lp120
F114.325291235469
aF272.85377412789995
aF140.64038685059808
aF97.98196392299212
aF129.55568886905996
aF44.09782603494298
aF76.43277868406528
aF144.97363932116406
aF58.5109006159029
aF447.0252771451921
aF130.35482589317897
aF137.93536691762293
aF236.25402329589093
aF143.91579741748203
aF82.95350891733673
aF81.34300646392234
aF34.41080857336991
aF108.83182997336398
aF219.89012832442626
aF82.5824293769778
aF293.1825861829759
aF83.09163251185684
asS'ko05034_Alcoholism'
p121
(lp122
F0.0
aF0.0
aF0.0
aF0.0
aF0.0
aF0.0
aF0.0
aF0.0
aF0.0
aF0.0
aF0.0
aF7.347175356239436
aF0.0
aF0.0
aF0.0
aF0.0
aF0.0
aF0.0
aF0.0
aF0.0
aF0.0
aF0.0
asS'ko03450_Non_homologousend_joining'
p123
(lp124
F5.21843336801814
aF1.2294603228414998
aF6.746579849208403
aF10.424461110259802
aF22.415756129250596
aF6.094606527507959
aF15.012602279796196
aF37.45218499752742
aF11.8504626979892
aF69.67002409632032
aF5.074730259646639
aF9.765683094230326
aF10.543537500889798
aF13.363797120658301
aF7.840091115873154
aF22.565466450579585
aF0.0
aF51.18247468051309
aF26.99926758968943
aF98.82369666373651
aF77.65771535251729
aF5.464730671737333
asS'ko05020_Priondiseases'
p125
(lp126
F22.239144320248002
aF55.16163604787329
aF21.991510585604008
aF10.709405674285103
aF604.5292569220849
aF48.45677772807349
aF46.90727287043559
aF8.196708481644425
aF3.6674678418441498
aF36.97727865517831
aF18.603870101890696
aF48.99881508635418
aF25.125610485514393
aF40.963907834730506
aF10.911710693856305
aF40.76653478055287
aF37.61342700888071
aF75.34120295901317
aF24.487389959993425
aF8.99720334764064
aF30.243030776090794
aF29.013505621648317
asS'ko00660_C5_Brancheddibasicacidmetabolism'
p127
(lp128
F3149.06278297966
aF3037.8761119268192
aF3123.864894934801
aF3047.651435803531
aF3304.4651353482996
aF2926.6629807636195
aF3421.834581679949
aF2939.8272370469513
aF2972.43447305925
aF3289.645087734501
aF3578.9673975874593
aF3062.848583178709
aF3422.4645500573993
aF2962.6642596648703
aF2975.4223040917814
aF3362.370897796698
aF2989.489076850691
aF3189.730041075299
aF3475.812509277724
aF3015.8204704694604
aF3322.342048108229
aF3583.7847064179623
asS'ko05205_Proteoglycansincancer'
p129
(lp130
F618.813788093781
aF609.4035841860459
aF678.2729259883623
aF564.0346135903532
aF334.3192401917239
aF656.0959253004239
aF597.1368173239769
aF686.5575998772402
aF776.310570667855
aF434.8008413798821
aF660.9243622150119
aF482.9720052515478
aF703.1268015761739
aF727.5441354479611
aF705.6080717586713
aF671.1146551846986
aF757.1059164414712
aF553.7538520255368
aF639.6501454517418
aF695.820122582112
aF652.0652998747818
aF590.9517561846283
asS'ko00281_Geranioldegradation'
p131
(lp132
F253.854732892866
aF604.0253214512169
aF269.62988871898614
aF123.55704086525202
aF621.7831736478279
aF211.81223954720693
aF103.61755192465698
aF405.86203711019215
aF65.5790179226081
aF205.33584970272605
aF332.4350303583109
aF134.92681869331793
aF125.65797969468997
aF273.051342332271
aF136.99252226387307
aF327.0274641263197
aF216.36562795710608
aF153.43246581856997
aF186.7970801923692
aF92.56647189559521
aF176.13892133528898
aF251.67902399972314
asS'ko00943_Isoflavonoidbiosynthesis'
p133
(lp134
F0.0
aF4.447822753955309
aF0.0
aF0.0
aF0.0
aF0.0
aF0.0
aF0.0
aF0.0
aF0.0
aF0.0
aF0.0
aF0.0
aF0.0
aF0.0
aF0.0
aF0.0
aF0.0
aF0.0
aF0.0
aF0.0
aF0.0
asS'ko00410_beta_Alaninemetabolism'
p135
(lp136
F2157.41847893797
aF2088.7913385046
aF1464.7959132448007
aF1509.6818107163203
aF1960.5321888733897
aF1500.3066472562198
aF1558.4675117624797
aF1716.7386241059708
aF1427.25046752884
aF1614.9805619076303
aF1986.5501086478594
aF1969.025470263579
aF1689.7821694451195
aF1515.6557066541202
aF1597.2387162623008
aF2019.5828796400683
aF1435.6588579064905
aF1691.5207409129996
aF1595.6902924122319
aF1569.3786108550503
aF1710.2463339090596
aF1887.258370017271
asS'ko00471_D_GlutamineandD_glutamatemetabolism'
p137
(lp138
F2791.9503859623
aF2375.2836438971494
aF2472.7714916205814
aF2673.9093388471606
aF1753.5303919561495
aF2674.0273792468192
aF2525.4773491570595
aF2650.238366090461
aF2958.1865092043
aF2642.398948389801
aF2288.7902101398295
aF2622.232931003609
aF2421.0336247294395
aF2548.9575881819005
aF2655.1915202304613
aF2396.4308019410983
aF2744.834661869471
aF2809.4067193516194
aF2415.4158203469724
aF2526.55379418685
aF2611.1805444909396
aF2251.8613493692214
asS'ko00361_Chlorocyclohexaneandchlorobenzenedegradation'
p139
(lp140
F125.174459216848
aF351.03634035093796
aF78.77105471149343
aF59.85983788763851
aF382.1014376533809
aF130.39319345173098
aF63.64855684411209
aF122.68917022096606
aF68.011201951012
aF70.01583542588742
aF183.99672957692493
aF134.28991744634794
aF217.81598510772997
aF51.7945568220464
aF74.52934204411864
aF168.9014504246529
aF196.3317673875661
aF73.90873725258739
aF117.10028602538314
aF106.89541393170701
aF102.12906479755198
aF217.43840762044215
asS'ko00760_Nicotinateandnicotinamidemetabolism'
p141
(lp142
F6515.07731637918
aF6465.033433407169
aF6364.439837664333
aF6129.810388531801
aF5195.762635343928
aF6770.243031063358
aF6783.286695545128
aF6720.478551752303
aF7431.93979362651
aF6384.938481764372
aF6044.2168027379985
aF6500.046424824547
aF6259.371166964549
aF6495.030481045571
aF6662.8861683416135
aF5757.055650321146
aF8106.728045798453
aF7100.495220464569
aF6047.305880737917
aF6965.683919540061
aF6544.193418105218
aF6196.2073767381435
asS'ko03420_Nucleotideexcisionrepair'
p143
(lp144
F6126.91449385166
aF6796.645508362559
aF6885.732439400183
aF7246.293539908432
aF5795.771967814939
aF6918.944591380839
aF6388.187502457358
aF7281.720244523964
aF6942.450536623271
aF7123.199949822401
aF7302.898904210989
aF7034.057804310527
aF7269.844285632738
aF7371.978883530691
aF7154.121272469164
aF6138.623610312686
aF6507.4191276975525
aF6304.317326847558
aF6423.659373326127
aF7184.7205913200105
aF6199.698944038659
aF6126.220571322143
asS'ko05100_Bacterialinvasionofepithelialcells'
p145
(lp146
F59.5675641092761
aF109.05942100692099
aF1.0656791581221505
aF71.47188357000081
aF167.89554832039596
aF27.637114635997893
aF9.258808732188058
aF0.0
aF0.0
aF39.96606352466191
aF0.0
aF36.24465701317738
aF9.580000830611558
aF0.0
aF16.13305647494611
aF102.17385847635293
aF16.389846948492604
aF1.6935225336521595
aF0.0
aF0.0
aF17.016048136319597
aF1.3211330858775707
asS'ko00460_Cyanoaminoacidmetabolism'
p147
(lp148
F5172.50699578125
aF6221.252720161169
aF6627.904811035964
aF6541.717421257471
aF3921.9782571546693
aF4519.322616434699
aF5465.388565279839
aF6741.744594521603
aF5693.57190596009
aF7310.288008019642
aF6161.584822993088
aF4753.630558604437
aF5265.295624180399
aF5983.666627454811
aF6813.443827978913
aF4718.017695353457
aF5653.7249078863415
aF4279.784996199459
aF5809.528730124527
aF5049.25164046481
aF6721.0038689000785
aF5542.402481346973
asS'ko00311_Penicillinandcephalosporinbiosynthesis'
p149
(lp150
F183.06298538359502
aF101.40212659729897
aF447.3639905331172
aF117.71518004935604
aF641.4477171609138
aF218.81313597231895
aF134.79600057559097
aF118.75328828061706
aF45.1546878174502
aF204.49974837880006
aF176.56139161527696
aF164.38161312861394
aF63.63096780597228
aF478.29562196131207
aF51.517432448688524
aF121.97263250473392
aF76.50077387190143
aF88.73903396063558
aF131.77231532662316
aF76.88558748559521
aF286.12641836058293
aF90.43139102527535
asS'ko00903_Limoneneandpinenedegradation'
p151
(lp152
F212.26663033445098
aF270.90544324862094
aF161.92544170054708
aF218.82101911049503
aF403.7323971536379
aF293.93693566369296
aF155.82496840894996
aF143.23581263149507
aF71.2312716809711
aF168.90813567299605
aF347.0787871877319
aF205.9659616471639
aF324.7364334487439
aF150.80231706280202
aF122.37634630373707
aF395.8039656822417
aF430.1716835415802
aF78.80153173047248
aF235.8163792155493
aF210.58547237926803
aF266.815106040929
aF304.6855093089862
asS'ko05322_Systemiclupuserythematosus'
p153
(lp154
F0.0
aF0.0
aF0.0
aF0.0
aF0.0
aF0.0
aF0.0
aF0.0
aF0.0
aF0.0
aF0.0
aF0.0
aF0.0
aF0.0
aF0.0
aF0.0
aF0.0
aF0.0
aF0.0
aF0.0
aF0.0
aF0.0
asS'ko00785_Lipoicacidmetabolism'
p155
(lp156
F829.506894944394
aF968.1628262957618
aF639.8190396480993
aF350.0931272334641
aF685.6520838023938
aF336.4859441493369
aF726.3122192408249
aF973.6576508467824
aF257.956988307856
aF837.7258544823281
aF562.3908232193548
aF311.97547235132987
aF528.877683932078
aF604.39042962184
aF455.1412104812642
aF791.1923333852245
aF248.3818170661181
aF653.0045499152419
aF441.9873332885755
aF372.26627953992806
aF626.0012727775519
aF598.1948120661264
asS'ko04976_Bilesecretion'
p157
(lp158
F0.0
aF0.0
aF0.0
aF0.0
aF0.0
aF0.0
aF0.0
aF0.0
aF0.0
aF0.0
aF1.1647776804256997
aF0.0
aF2.1003517920052195
aF0.0
aF0.0
aF0.0
aF0.0
aF0.0
aF0.0
aF0.0
aF1.6465905755315795
aF0.0
asS'ko04150_mTORsignalingpathway'
p159
(lp160
F0.0
aF0.0
aF0.0
aF0.0
aF0.0
aF0.0
aF0.0
aF0.0
aF0.0
aF0.0
aF0.0
aF0.0
aF0.0
aF0.0
aF0.0
aF0.0
aF0.0
aF0.0
aF0.0
aF0.0
aF0.0
aF0.0
asS'ko05152_Tuberculosis'
p161
(lp162
F2392.7599884124897
aF3381.7177339401496
aF2696.5750790740412
aF3416.036644531541
aF3590.8251671914095
aF2495.0849484190694
aF2450.2788972262497
aF2855.3346947349114
aF2812.09213157056
aF2487.9546851620207
aF2887.779841644109
aF2289.653914908769
aF2783.7524744051493
aF2657.4748535617005
aF2987.565319625611
aF2446.413551584018
aF2733.965194582521
aF2543.008640179329
aF2696.239501079493
aF2848.1189146068305
aF2375.0624196266695
aF2337.9024143222614
asS'ko00562_Inositolphosphatemetabolism'
p163
(lp164
F1962.2644688099601
aF1508.8124834066198
aF1432.6942597624106
aF1130.8759246792904
aF1911.8447495809994
aF1174.9460783108898
aF1699.9691712689096
aF1746.2839921984908
aF1184.29783172967
aF1656.8775031896405
aF1565.5499604702597
aF1583.5933443583792
aF2050.9407708303493
aF1429.0026370547703
aF1148.7548967076905
aF1812.4317322935487
aF1116.6227237363703
aF1565.9568642150598
aF1486.0911855746217
aF1612.52430111248
aF1758.2530257214096
aF1864.751814964141
asS'ko05204_Chemicalcarcinogenesis'
p165
(lp166
F171.63357171819098
aF171.72036662634295
aF0.0
aF9.437416262996372
aF282.77478112086897
aF60.40731661157168
aF0.4433294855195299
aF1.3225370518326705
aF0.0
aF6.767470668193972
aF169.48535367939397
aF120.62500036099794
aF16.971550707937997
aF0.0
aF5.702008305270063
aF126.89096763271792
aF221.7988255912211
aF0.0
aF4.402374037822265
aF2.4145298346919803
aF3.722874721351009
aF179.2247944723831
asS'ko00330_Arginineandprolinemetabolism'
p167
(lp168
F17803.5921571581
aF16494.871921179398
aF17213.467653864507
aF16450.480194885804
aF13000.738913001596
aF16143.234483551496
aF17593.165936608995
aF16735.58053489921
aF16002.245002345699
aF15670.305995623205
aF16483.845915704696
aF15368.530294452494
aF16058.956904089997
aF16102.068597192101
aF16238.608138507707
aF17050.697517657987
aF17519.273942002306
aF16503.120796843497
aF16241.845688559517
aF16389.3136264337
aF15286.133269689895
aF16440.853256775208
asS'ko00523_Polyketidesugarunitbiosynthesis'
p169
(lp170
F2341.04627347461
aF2784.9380456736494
aF3115.0507437254614
aF3502.8580662366708
aF2078.7953804124295
aF2782.792496386969
aF2066.9855180700292
aF2751.9995545268016
aF2798.81156566052
aF3106.2297202180407
aF2911.9171297224593
aF2635.7685795086986
aF2825.1568776359595
aF2919.4180557237805
aF3306.565430942612
aF2013.3038037308584
aF2423.447648589831
aF2280.0082721861695
aF2936.3026975525236
aF2900.57669413587
aF3315.9546465703293
aF3069.330418073722
asS'ko00130_Ubiquinoneandotherterpenoid_quinonebiosynthesis'
p171
(lp172
F2888.35218999577
aF3301.1865650711993
aF1687.7047966940306
aF1979.9774469371405
aF2841.2890697937296
aF2637.9358515047793
aF2871.056771362649
aF2116.455723385001
aF3662.6223085022602
aF2042.5745546181706
aF1477.5039894777096
aF2282.590431596779
aF1397.7801842930799
aF1815.9137444957803
aF2434.260971556981
aF2289.2404722117985
aF3785.893948268881
aF2532.6113249887794
aF1367.0539598146715
aF2382.7473799071804
aF1853.4704712797497
aF2004.1277004030012
asS'ko00720_Carbonfixationpathwaysinprokaryotes'
p173
(lp174
F15879.7299873321
aF17043.534916532593
aF14774.448003569107
aF14865.860643355703
aF16050.269540469197
aF14324.408061631897
aF17965.9510482895
aF16641.942311561008
aF16758.7790919363
aF16206.448536339503
aF14955.211403786596
aF14454.842454726493
aF13908.724886303697
aF14866.280912543501
aF17191.12689266641
aF15759.37868487149
aF15404.858055450106
aF16358.149754769798
aF14256.794070873617
aF14906.471537037602
aF15374.382938543196
aF13879.125376166608
asS'ko00310_Lysinedegradation'
p175
(lp176
F1640.48045423021
aF1694.2644867213596
aF1623.2120585346506
aF1581.3527747673904
aF2056.30701608612
aF1270.6433943886598
aF1034.5464075150696
aF1420.2018203324706
aF1140.38634328891
aF1411.8648011521605
aF1657.1229835957397
aF1242.5078268930092
aF1456.1544382161196
aF1392.0237802555002
aF1428.2464913517608
aF1540.465632807359
aF1382.5005791867306
aF1207.2162560921397
aF1353.3120405311115
aF1354.4516433261701
aF1408.0621191895498
aF1626.358736780101
asS'ko00640_Propanoatemetabolism'
p177
(lp178
F7226.321758196799
aF7081.335306472039
aF6235.555695910983
aF6474.738590195611
aF9854.164419714909
aF6445.602249410808
aF7180.476428599698
aF5986.168608543143
aF4896.51977111352
aF7145.710011293461
aF7110.843079245748
aF6503.585787740817
aF6677.000647676048
aF6108.8219213540415
aF5629.348508283632
aF7574.671060362864
aF5090.877864265762
aF6850.461445074759
aF6822.523750569748
aF6055.279199318751
aF7465.474180462408
aF6298.0199156143735
asS'ko04110_Cellcycle'
p179
(lp180
F0.0
aF0.0
aF0.0
aF0.0
aF0.0
aF0.0
aF0.0
aF0.0
aF0.0
aF0.0
aF0.0
aF0.0
aF2.504777272597299
aF0.0
aF0.0
aF0.0
aF0.0
aF0.0
aF0.0
aF0.0
aF0.0
aF0.0
asS'ko00620_Pyruvatemetabolism'
p181
(lp182
F15932.021581501602
aF15316.466104094796
aF15386.256382408406
aF14612.351365431903
aF17317.176769543697
aF13972.846900823897
aF14567.713607084297
aF14644.364336378207
aF12587.6210369499
aF15978.045930408904
aF15568.365627379695
aF15155.534755181994
aF15258.169331973897
aF15050.088980604802
aF14054.057169843807
aF14544.74934870839
aF12351.096990846005
aF14351.594088247897
aF14923.303654381216
aF14265.2362710476
aF15979.406337250497
aF14803.765379193308
asS'ko05169_Epstein_Barrvirusinfection'
p183
(lp184
F0.0
aF1.0144530596883397
aF0.0
aF0.0
aF0.0
aF0.0
aF0.0
aF0.0
aF0.0
aF1.4209611760558203
aF0.0
aF0.0
aF5.982433754076048
aF0.0
aF0.0
aF0.0
aF0.0
aF0.0
aF0.0
aF0.0
aF4.975083631466858
aF0.0
asS'ko05200_Pathwaysincancer'
p185
(lp186
F804.2218759929019
aF764.8898804711748
aF722.4401010134254
aF824.5621116292112
aF732.0047154566909
aF609.8663196663789
aF733.0259733639829
aF752.1751333025873
aF778.2201205106751
aF749.8764023657362
aF805.2279883986438
aF764.7138327044737
aF874.4702468602748
aF752.8483108815032
aF927.2501469678114
aF755.3385270577775
aF662.0520693161392
aF810.3007392365838
aF746.4358419418138
aF861.3333955837771
aF659.2926249932929
aF751.9016773757105
asS'ko00010_Glycolysis_Gluconeogenesis'
p187
(lp188
F17667.101134910197
aF16577.488194626294
aF18367.40218419391
aF18183.998921916405
aF21009.497809429897
aF18399.193962221696
aF18024.855087386997
aF16812.148593373207
aF16050.4799048936
aF17727.4145212918
aF17485.322299993597
aF18819.255435428793
aF17845.299911894395
aF17268.173743226802
aF16922.33760855621
aF18405.410410609187
aF15651.895277814903
aF17788.485027423296
aF17502.98524967472
aF17701.489078150604
aF18309.004650352195
aF17535.953048724612
asS'ko00910_Nitrogenmetabolism'
p189
(lp190
F6857.053446274061
aF6836.715944361548
aF6556.982142443143
aF6179.371285502231
aF6076.042237041758
aF6217.408074620758
aF6848.424488714768
aF7486.498088293793
aF7272.05304889746
aF6447.2711297636515
aF6741.416621035119
aF6329.0822983705475
aF5971.198988213549
aF6270.61839758999
aF6286.842385004743
aF6177.590259951846
aF7888.483973596232
aF6216.445859960988
aF6773.055975697188
aF6621.044282887201
aF5891.8567762288985
aF6005.615353758183
asS'ko05131_Shigellosis'
p191
(lp192
F5.04282692104602
aF0.0
aF0.0
aF0.0
aF0.0
aF0.0
aF1.6953291917345696
aF0.0
aF0.0
aF0.0
aF0.0
aF0.0
aF0.0
aF0.0
aF0.0
aF0.0
aF0.0
aF0.0
aF0.0
aF0.0
aF0.0
aF0.0
asS'ko00120_Primarybileacidbiosynthesis'
p193
(lp194
F753.821341774968
aF577.7439240917798
aF871.0223319977694
aF842.9879126085392
aF342.8076437554399
aF328.7101510085429
aF724.2885199322628
aF1097.6023524710206
aF647.861837624793
aF930.8537584247772
aF685.6487492356717
aF503.5099790236538
aF1114.9179851224396
aF762.940206905051
aF536.3008243005872
aF462.03190052458166
aF264.7984130091261
aF514.3769963005659
aF1289.2248212200514
aF1113.09276594644
aF1114.1523652116398
aF765.3329008100815
asS'ko03013_RNAtransport'
p195
(lp196
F947.9460575527679
aF1171.1125800040297
aF1183.4105362194607
aF1308.8340390518904
aF897.0266770043368
aF1263.5254623811697
aF1391.6907039293596
aF1012.4853086060203
aF1107.78008242168
aF1087.9905138815702
aF1140.3307506511599
aF1277.8113374028294
aF1396.9789741612396
aF1313.2649488583202
aF1231.9895290060806
aF1256.675735969809
aF1122.0521830713506
aF1510.0777523889396
aF1321.7235269212915
aF1399.13893768416
aF1193.3984436305898
aF1401.6278693552508
asS'ko00350_Tyrosinemetabolism'
p197
(lp198
F3559.39923503906
aF2948.645546742739
aF2695.0824398634213
aF2308.4618429244706
aF3943.932988863889
aF3074.9285581509894
aF2732.1181725623696
aF2500.0883127826614
aF2534.44087416709
aF2611.61533513675
aF2667.7379598024395
aF3298.6018859311184
aF2492.0800186324395
aF2344.28144511596
aF2185.468813787831
aF2852.237737322918
aF3128.965239566861
aF2806.2068842092694
aF2222.8118345836924
aF2582.62554622413
aF2566.9673068575794
aF2711.6404626104413
asS'ko03030_DNAreplication'
p199
(lp200
F9552.681414889981
aF10952.638725422497
aF10044.516593764005
aF10937.453930879503
aF8192.899156178857
aF10991.862999115398
aF10364.853959968397
aF11208.669916261104
aF10813.6024748591
aF10414.748558814303
aF9988.409617568697
aF10292.009202903795
aF11471.271242923798
aF10932.916045933602
aF11355.496510371704
aF9911.739237190623
aF10044.479836529403
aF10698.499732583998
aF10156.268358167212
aF10643.230603307602
aF10089.382858498699
aF9921.172262791395
asS'ko05146_Amoebiasis'
p201
(lp202
F161.107055000209
aF73.80714380037118
aF137.03416431416406
aF135.01519426405804
aF174.42336264532798
aF120.41287146621497
aF64.5650225179482
aF141.17890900994004
aF52.9299029419333
aF62.79423991303792
aF552.3874661053768
aF93.16333838626227
aF108.72419895463997
aF139.59667649387202
aF186.3502687279781
aF112.46712942142791
aF124.52624157889505
aF66.56485183158829
aF106.88003201957812
aF88.47675172859562
aF58.28592365672469
aF43.49864639059192
asS'ko00630_Glyoxylateanddicarboxylatemetabolism'
p203
(lp204
F11431.6425550597
aF11130.569989977397
aF10651.590890008605
aF9251.259391484413
aF11222.001732130098
aF8869.690938049029
aF11752.096299655697
aF11738.463736245005
aF9481.87495349348
aF10536.331274794902
aF10061.542076523398
aF9787.073605082336
aF10567.335604641397
aF10500.38348249
aF9757.043305323985
aF11262.967858654392
aF9892.356916246243
aF11234.591675729596
aF10967.469057426213
aF10160.806535204001
aF10000.535539407698
aF10598.091300308806
asS'ko00480_Glutathionemetabolism'
p205
(lp206
F3444.61045013499
aF3402.7889894292994
aF2233.070448299091
aF2515.890511340541
aF3492.883076433799
aF3360.1297238988095
aF2562.8425406279
aF3125.3463901049013
aF2903.07362514354
aF3085.4841479237107
aF2511.7155280331294
aF2836.7480910469985
aF2397.7237267138794
aF2400.98715918407
aF2695.644604710751
aF3126.975182203958
aF4253.557976966702
aF2832.3131906531894
aF2369.8409909426828
aF2522.62115003422
aF2812.919569333639
aF2563.643668855061
asS'ko03008_Ribosomebiogenesisineukaryotes'
p207
(lp208
F695.176677383167
aF688.9304689593878
aF773.0172009376804
aF575.1950720485892
aF462.6428141404439
aF710.3020702251029
aF648.3620384187528
aF722.3434576831684
aF787.805866961669
aF447.2205363481611
aF704.4681528328368
aF503.88971951221174
aF722.2503472518738
aF752.210846565178
aF713.7878551484743
aF719.1352143402885
aF826.6654792497093
aF565.9767599081118
aF655.1713149230058
aF729.206196528518
aF697.0328141069228
aF640.8297933952214
asS'ko05164_InfluenzaA'
p209
(lp210
F0.0
aF3.3534188583350195
aF0.0
aF6.0387677576040915
aF12.450906743787497
aF0.0
aF3.958358041738959
aF3.6457001903406216
aF0.0
aF3.3421325715247305
aF0.5774111578189318
aF2.789086247708989
aF4.331340546388499
aF0.0
aF1.5379117528092807
aF2.6070071791993183
aF0.0
aF0.0
aF4.032030809548575
aF1.5597707954546403
aF1.2905894043216097
aF2.4671910251961218
asS'ko00253_Tetracyclinebiosynthesis'
p211
(lp212
F1208.04073751958
aF1096.2317948834097
aF1332.8590718952207
aF1190.6876155552804
aF1085.5760944431197
aF1449.1796536742095
aF1201.2547963394597
aF814.8853382279564
aF417.747538727663
aF1667.0530817742406
aF1799.5273643387095
aF1331.7232156270693
aF1557.8018789181497
aF1319.5411531628802
aF847.1227866414954
aF1570.681145798389
aF828.2966698585062
aF1059.2408074600798
aF1279.1100783265615
aF886.6370783278381
aF1746.5110684930596
aF1217.2965569069906
asS'ko00030_Pentosephosphatepathway'
p213
(lp214
F12826.2599353932
aF12668.863824369197
aF14340.225883161107
aF12570.436410000002
aF12325.134753295697
aF12258.409450794896
aF13945.175106329196
aF12725.057112786006
aF13069.9105055532
aF13550.566158061303
aF14066.121135176098
aF13670.580955227995
aF14610.753338407996
aF13559.0684604208
aF12437.215483190505
aF14702.75531590989
aF11149.557623800203
aF14361.122854957195
aF14059.324196171217
aF14022.765015849001
aF13920.607602477297
aF14723.41010774341
asS'ko00520_Aminosugarandnucleotidesugarmetabolism'
p215
(lp216
F22204.0798502785
aF21875.724749792094
aF23900.340704239512
aF24958.589286236507
aF20295.068749047896
aF25561.314761587197
aF23115.197290069595
aF25202.16346038871
aF24440.842159686097
aF23266.706715374006
aF23008.33274063239
aF23105.237422885588
aF22894.434610672793
aF23898.6677399801
aF23313.38963744421
aF23695.728273935383
aF28326.93098086141
aF24518.336738727692
aF23986.47004969223
aF23846.037781096304
aF24069.81609442249
aF24087.865736383614
asS'ko00830_Retinolmetabolism'
p217
(lp218
F207.459693820479
aF187.94966179574897
aF185.7407835711911
aF153.37554179846705
aF648.9854327506229
aF184.80337589355895
aF92.88469047956987
aF110.97431843250506
aF42.3309578305157
aF213.56464000669703
aF229.48065354383195
aF160.35854343725694
aF117.70706859335397
aF196.92365456671203
aF59.73445643630553
aF142.0395613621709
aF148.23640260524607
aF92.14449938444598
aF102.25487205174412
aF103.65776513265502
aF201.58893271085395
aF132.1995040970831
asS'ko00906_Carotenoidbiosynthesis'
p219
(lp220
F0.0
aF0.0
aF3.1981736116583916
aF6.536626686377152
aF27.572859962887094
aF33.22395331778039
aF9.039168859679327
aF9.903397154718085
aF0.0
aF1.5637929391511305
aF0.0
aF26.925431531024188
aF3.4990462622978993
aF7.316159655441271
aF0.0
aF16.99247764569989
aF0.0
aF0.0
aF1.5666027318315419
aF0.0
aF1.1410592345665398
aF0.0
asS'ko04978_Mineralabsorption'
p221
(lp222
F0.0
aF0.0
aF0.0
aF0.0
aF95.84593379155788
aF3.1237974771724795
aF1.6106014056306797
aF3.2983847272493514
aF1.40945241532356
aF8.916088899896662
aF3.2480175175389494
aF0.0
aF0.0
aF0.0
aF3.3093128804834713
aF0.0
aF0.9576361683715493
aF0.0
aF5.968297606689747
aF0.0
aF4.281194972290649
aF0.0
asS'ko03430_Mismatchrepair'
p223
(lp224
F11402.7464859881
aF12808.344192467497
aF11866.819326290706
aF13261.573451637303
aF10066.981994555797
aF13241.708296221497
aF12072.382796794098
aF13643.068212118906
aF11941.5567967508
aF12700.264890658704
aF12279.459223408798
aF12676.424065932193
aF13907.775263777798
aF12963.814728606701
aF13635.421062338808
aF11706.924822922592
aF12540.753724112205
aF12479.996831566597
aF12624.314375326714
aF12592.0735575172
aF11889.564853854397
aF12104.328313215206
asS'ko00601_Glycosphingolipidbiosynthesis_lactoandneolactoseries'
p225
(lp226
F0.0
aF0.0
aF0.0
aF0.0
aF0.0
aF0.0
aF0.0
aF0.0
aF0.0
aF0.0
aF0.0
aF0.0
aF0.0
aF0.0
aF0.0
aF0.0
aF0.0
aF0.0
aF0.0
aF0.0
aF0.0
aF0.0
asS'ko04727_GABAergicsynapse'
p227
(lp228
F2142.22838635291
aF2389.4557534219293
aF2243.687429670371
aF1869.5972592849005
aF1733.0012086344695
aF2005.0702366816495
aF1878.7809172417194
aF2986.7575826109214
aF1968.3939324966798
aF2428.2445456378705
aF2173.5616201827193
aF1814.934231590649
aF2045.1207096690796
aF2132.5776940403402
aF2065.7712222556106
aF1868.3933557245387
aF2605.425599243391
aF1858.5483362886496
aF2129.1530478968925
aF1958.41726162091
aF2152.7405583171494
aF1828.043310333401
asS'ko04961_Endocrineandotherfactor_regulatedcalciumreabsorption'
p229
(lp230
F0.0
aF0.0
aF0.0
aF0.0
aF0.0
aF0.0
aF0.0
aF0.0
aF0.0
aF0.0
aF0.0
aF0.0
aF0.0
aF0.0
aF0.0
aF0.0
aF0.0
aF0.0
aF0.0
aF0.0
aF0.0
aF0.0
asS'ko00960_Tropane_piperidineandpyridinealkaloidbiosynthesis'
p231
(lp232
F2310.6556582440003
aF1924.9613122722997
aF1530.0836373100806
aF1524.3842429384104
aF1270.5963008340295
aF1702.5590020713796
aF1901.3076281818796
aF1709.8340001005506
aF2095.75329636487
aF1671.9673795261206
aF1549.9775521176296
aF1845.9529424484592
aF1589.0189823336596
aF1623.5215501588002
aF1776.4386111190909
aF1789.4391955427086
aF1744.6883749672606
aF2024.8829981405697
aF1432.3225151914116
aF1812.64489453353
aF1582.8001664445796
aF1706.255386731941
asS'ko00908_Zeatinbiosynthesis'
p233
(lp234
F852.242606187634
aF867.9217048046119
aF670.1116855129663
aF878.5385920937132
aF458.93870918705085
aF912.6340666988558
aF859.0090942824107
aF946.6386619953704
aF1159.02215503595
aF804.6492748739782
aF732.8048112629679
aF732.6611766584067
aF710.2226825764649
aF754.945288164523
aF1068.1263351102505
aF710.5027811250925
aF1036.1002317920604
aF1082.9338586279798
aF681.0245443053898
aF957.1482320033001
aF789.3741538304217
aF720.4554883035435
asS'ko05416_Viralmyocarditis'
p235
(lp236
F0.0
aF3.3534188583350195
aF0.0
aF1.9029519203811105
aF0.0
aF0.0
aF3.958358041738959
aF3.6457001903406216
aF0.0
aF3.3421325715247305
aF0.5774111578189318
aF2.789086247708989
aF2.8588083867971794
aF0.0
aF0.0
aF2.6070071791993183
aF0.0
aF0.0
aF4.032030809548575
aF0.0
aF0.0
aF0.0
asS'ko00240_Pyrimidinemetabolism'
p237
(lp238
F28225.0214046549
aF29699.538290317592
aF28342.894858082815
aF32799.839154535206
aF26353.120306380195
aF32446.892427987394
aF28985.232326215093
aF30808.606231222013
aF30903.0754956339
aF29440.186844010506
aF29872.389407977993
aF33941.957918169785
aF30854.976162112795
aF28346.417301304504
aF32536.13272031022
aF27531.88830978098
aF29554.28465803061
aF29692.56673463559
aF29924.120420661435
aF31682.048101377804
aF29112.381048635692
aF29579.248710157117
asS'ko04260_Cardiacmusclecontraction'
p239
(lp240
F3.12844368904613
aF15.623445953380196
aF0.0
aF0.0
aF3.2713157044567893
aF0.0
aF3.5833367432568393
aF0.0
aF0.0
aF7.159618322070141
aF5.452049826802749
aF0.0
aF0.0
aF0.0
aF0.0
aF2.6113952383973085
aF0.0
aF6.722399335309668
aF29.404540413269334
aF0.0
aF4.365911335400919
aF0.0
asS'ko00450_Selenocompoundmetabolism'
p241
(lp242
F6090.63029012978
aF6144.408389920499
aF6284.746324608933
aF6082.671914625971
aF5854.245078142319
aF6324.136233433379
aF6031.925054796398
aF6099.405795654903
aF5434.10808464661
aF5982.434407987282
aF5578.175837701378
aF6367.900059125556
aF6006.973670087408
aF5958.40475642248
aF6016.1324926184725
aF5584.140861554986
aF6876.996138644402
aF5333.777991532149
aF5725.937871899127
aF5798.6871021796715
aF5783.028281433269
aF5708.470190169784
asS'ko05211_Renalcellcarcinoma'
p243
(lp244
F241.63332386180102
aF98.19875806254157
aF60.27789867710713
aF72.09270060857071
aF202.66779697567196
aF71.82740269734109
aF36.57834525348609
aF49.95111248311583
aF41.4913988348394
aF103.52840936054302
aF59.21317968331279
aF89.12180705904065
aF99.56088458184259
aF17.438751606002
aF117.19947203928504
aF94.48815448404373
aF133.94596692495304
aF57.357618725461684
aF91.85610298239831
aF79.03991132621911
aF82.20920703224027
aF45.34318621690313
asS'ko00430_Taurineandhypotaurinemetabolism'
p245
(lp246
F2533.54068896037
aF2416.3440691332294
aF1917.914275612551
aF2067.6859919194403
aF2415.6286990038293
aF2348.0243030192696
aF1910.0404517494596
aF2434.816768087601
aF2465.21489089869
aF2409.8576194136404
aF2071.3156637767297
aF1995.2881303146492
aF1915.7319188030995
aF2067.2487609490204
aF2556.133697619501
aF1971.9159533952688
aF2469.772446073691
aF1928.0973704424796
aF1908.0836253938724
aF2116.3549396197104
aF2123.7316559794094
aF1867.847377586231
asS'ko02020_Two_componentsystem'
p247
(lp248
F17458.7351915029
aF19602.376421812496
aF15454.061467002408
aF13240.630552879804
aF25653.772310978893
aF16365.172833266497
aF12880.820241535297
aF14145.753149151906
aF12023.6127058091
aF13556.707863274703
aF17827.671721207895
aF16382.30822175399
aF16218.027757282294
aF16031.6123130353
aF13745.613399215106
aF18011.94971393189
aF17565.401376165006
aF14216.987796495996
aF17679.53637176942
aF13954.0516931582
aF13492.587819312297
aF17758.342893458812
asS'ko03060_Proteinexport'
p249
(lp250
F7801.137669928779
aF7988.362590069287
aF8517.198724366854
aF8180.398007529273
aF7751.058551257828
aF9319.151755544537
aF7923.987974254687
aF7994.549206479603
aF9694.70138726711
aF8104.538041848093
aF7720.801339524328
aF8336.394301039925
aF8000.368486715408
aF8358.56743148478
aF8694.920453770954
aF8487.906840700673
aF9155.126713448553
aF8608.52788167378
aF8104.65178536366
aF8125.69960359468
aF8349.571451163489
aF8490.342924084525
asS'ko04066_HIF_1signalingpathway'
p251
(lp252
F1658.85287303899
aF1709.1594478924594
aF1635.1160317789008
aF1960.5966323165105
aF2146.0570313529693
aF1921.5495652571897
aF1784.5205033708296
aF1603.5471917892407
aF1841.28741895054
aF1669.2737563876603
aF1612.3247944934897
aF1800.5839185338991
aF1742.7977107118495
aF1322.9838135129103
aF1625.8378279937008
aF1684.7894171059388
aF1779.1086606267106
aF1743.6568254976496
aF1700.945856901602
aF1928.78131381274
aF1751.8907202990895
aF1552.893924420301
asS'ko00710_Carbonfixationinphotosyntheticorganisms'
p253
(lp254
F9728.203485391841
aF9494.747383553287
aF10283.935996959204
aF9522.614865523972
aF8730.940496821748
aF8925.487478417628
aF10839.576720930198
aF9748.881553415924
aF11274.8008394285
aF9925.545756488902
aF9591.981179807208
aF9353.051007475866
aF10106.669959277497
aF9774.828721039341
aF10035.234000244005
aF10081.880816054192
aF8846.686725247293
aF10933.165053743698
aF9523.99780842339
aF10356.585026640101
aF9923.450048010278
aF9910.503972687786
asS'ko00909_Sesquiterpenoidandtriterpenoidbiosynthesis'
p255
(lp256
F0.0
aF3.3358484358394893
aF0.0
aF13.583870868582604
aF29.09439178536759
aF5.579533431017339
aF2.1983603889089296
aF24.24594524807231
aF1.18010492433045
aF0.0
aF4.926255777976669
aF0.0
aF2.5596716490202396
aF3.74999320160896
aF0.0
aF5.921419372039966
aF0.7107008166952932
aF0.0
aF4.302522457998885
aF4.225620345004801
aF0.0
aF0.0
asS'ko04724_Glutamatergicsynapse'
p257
(lp258
F1862.81762720298
aF1946.1229884625095
aF2006.2784450078507
aF1751.1554998213503
aF1441.2313396975696
aF1873.4701692252595
aF1702.7555988414297
aF2473.0479144174215
aF1896.63078796438
aF2000.0203199273906
aF1906.0331579361996
aF1752.3850000560592
aF1872.8299895929695
aF1897.2769308924903
aF1930.320036072091
aF1621.671856372109
aF2574.401795228991
aF1697.4910045478896
aF1915.8389168771123
aF1874.2887109075502
aF1885.8884172544497
aF1667.378881950121
asS'ko00770_PantothenateandCoAbiosynthesis'
p259
(lp260
F8800.15094704474
aF8683.745096048498
aF8730.204115294373
aF8798.910201779761
aF8180.819592902889
aF8408.973850876577
aF8365.506988015088
aF8442.664405770995
aF9189.89998672882
aF8562.778739441921
aF8629.772233926058
aF8679.325460531705
aF8863.460259058007
aF8570.958960043221
aF8723.997761093135
aF7950.982171888545
aF7953.161865801333
aF8313.441568812459
aF8772.573829576691
aF8856.048889938711
aF8607.106635624958
aF9122.950776888536
asS'ko00522_Biosynthesisof12__14_and16_memberedmacrolides'
p261
(lp262
F0.0
aF0.0
aF0.0
aF0.0
aF0.0
aF0.0
aF0.0
aF0.0
aF0.0
aF0.0
aF0.0
aF0.0
aF0.0
aF0.0
aF0.0
aF0.0
aF0.0
aF0.0
aF0.0
aF0.0
aF0.0
aF0.0
asS'ko01230_Biosynthesisofaminoacids'
p263
(lp264
F68622.19912088959
aF64289.05049036739
aF71620.06910029663
aF71151.48320300141
aF59879.638041918086
aF68342.7798720413
aF73051.25634919858
aF68646.65728452643
aF72541.1653336048
aF67721.48676305261
aF68587.26759397598
aF66162.68107941648
aF71333.97537564668
aF70526.7241559493
aF69774.66663628203
aF67436.25880182834
aF67831.38957467972
aF70391.22664426568
aF71625.76717245359
aF71878.7926753325
aF69176.02035157639
aF69139.33067329874
asS'ko01055_Biosynthesisofvancomycingroupantibiotics'
p265
(lp266
F1014.23818963799
aF1011.7188687666899
aF1118.6073405055504
aF969.4795458613853
aF853.0383406747547
aF643.5321487400488
aF728.4529180683138
aF952.7558071903195
aF732.448466907588
aF1091.7874296070004
aF853.4699790006929
aF782.8519866881306
aF769.6327489847808
aF997.7111538170182
aF876.7637290370834
aF585.1715510825755
aF704.2454490530522
aF619.6981839560768
aF850.620681244308
aF722.250032981624
aF1070.5529190296998
aF810.0797792650656
asS'ko05203_Viralcarcinogenesis'
p267
(lp268
F684.447220888523
aF795.3899776709688
aF787.9111032562754
aF759.1630821887611
aF748.3470293922629
aF717.8407307529488
aF899.8417378076798
aF763.9379860765964
aF823.027589132962
aF678.1176715251971
aF747.3791652719298
aF777.2787041608196
aF812.4545749628628
aF752.4865155421231
aF768.6382044625633
aF674.9688859961345
aF607.4709635173211
aF777.1887013002378
aF694.6715974548068
aF810.0093463375431
aF676.6406544278329
aF719.5953892135374
asS'ko04113_Meiosis_yeast'
p269
(lp270
F0.0
aF2.0775702953858097
aF225.66462273071213
aF0.0
aF14.638825642974597
aF0.0
aF1.8591493238498895
aF38.24530448284752
aF8.55834953775481
aF4.692034954358521
aF1.3281756151779596
aF3.4646333458668788
aF5.761139984914498
aF242.13479857766902
aF1.992802637380901
aF19.257657721370286
aF3.2670634234092413
aF0.0
aF32.84428968110794
aF35.8266102439171
aF3.771705490971079
aF0.0
asS'ko00364_Fluorobenzoatedegradation'
p271
(lp272
F360.027094752302
aF137.082471225594
aF0.0
aF8.070752870740183
aF215.29027555614195
aF56.59199934099339
aF0.9574349157503247
aF5.8223345047872925
aF0.0
aF1.3867417189909903
aF148.92602590934897
aF280.39928913329584
aF36.00401019594009
aF0.0
aF0.0
aF171.90976708020088
aF76.06972935595311
aF0.0
aF3.0177846536992035
aF0.0
aF0.0
aF218.9565540959281
asS'ko03460_Fanconianemiapathway'
p273
(lp274
F0.0
aF0.0
aF0.0
aF0.0
aF0.0
aF0.0
aF0.0
aF0.0
aF0.0
aF0.0
aF1.7117363502315297
aF0.0
aF9.662099260485668
aF0.0
aF0.0
aF0.0
aF0.0
aF0.0
aF0.0
aF2.3350949877632603
aF3.742947349484399
aF0.0
asS'ko00565_Etherlipidmetabolism'
p275
(lp276
F56.690480511202495
aF73.55756111541349
aF25.78579717169721
aF53.56250770327391
aF103.95579719427798
aF67.00285977874908
aF60.783018587889984
aF83.77915494596023
aF54.3309813425554
aF12.748353416741104
aF77.12313634385369
aF54.89103790126008
aF244.47153683469293
aF32.40063739826041
aF87.28308750287074
aF201.64706682072287
aF47.37198866311402
aF60.622740813553584
aF31.044710203132738
aF63.51236562249141
aF20.354150345606296
aF114.29376198194007
asS'ko04145_Phagosome'
p277
(lp278
F0.0
aF0.0
aF0.0
aF0.0
aF0.0
aF0.0
aF0.0
aF0.0
aF0.0
aF0.0
aF0.0
aF0.0
aF0.0
aF0.0
aF0.0
aF0.0
aF0.0
aF0.0
aF0.0
aF0.0
aF0.0
aF0.0
asS'ko00627_Aminobenzoatedegradation'
p279
(lp280
F1238.3630455159
aF1117.7238560778796
aF884.4409984031705
aF737.4757307682181
aF2173.66540550073
aF986.9995637208399
aF741.5793738706549
aF871.4734368455134
aF396.30464192810905
aF888.7948371455861
aF1050.5050448323898
aF1181.9969377870796
aF685.4568299617198
aF888.9235371554471
aF614.4484740942913
aF1210.5840746348192
aF992.1403492430353
aF752.4052591401158
aF647.1102553117688
aF580.265242316342
aF930.2739034188548
aF1105.1592061562208
asS'ko05016_Huntingtonsdisease'
p281
(lp282
F398.819684483367
aF463.54735183843593
aF224.3113404219101
aF131.14893462159603
aF1027.6906629011698
aF288.0966767609729
aF270.7231335392499
aF241.99030715192112
aF80.02110717875969
aF349.2982187516151
aF280.90680632366195
aF284.7171842655539
aF268.93430952883193
aF268.94557516129606
aF114.38704847333406
aF278.2567917874398
aF156.20970897592704
aF248.58716965748692
aF248.91182072505532
aF88.65275285803192
aF230.04983395510794
aF256.52516925444115
asS'ko00592_alpha_Linolenicacidmetabolism'
p283
(lp284
F164.385123743496
aF185.65887915206196
aF18.323700557732106
aF29.832768263156108
aF313.6471275012469
aF120.18060868134397
aF9.115065381432148
aF21.73258345945711
aF3.66702904339463
aF8.197195805133482
aF93.35675833388717
aF117.44034916656996
aF38.15127162518229
aF30.042840254417804
aF45.17102929518432
aF198.30224070225185
aF119.77617085088504
aF32.37067755917119
aF22.533796715454624
aF9.320184424007282
aF11.097074080300798
aF115.44346091891306
asS'ko00941_Flavonoidbiosynthesis'
p285
(lp286
F0.0
aF0.0
aF0.0
aF0.0
aF0.0
aF0.0
aF0.0
aF0.0
aF1.00327777172881
aF7.494416488358922
aF4.213979355895409
aF0.0
aF0.0
aF0.0
aF0.0
aF0.0
aF0.0
aF4.37346548872048
aF11.183790383787313
aF0.0
aF0.0
aF3.567466613030902
asS'ko00860_Porphyrinandchlorophyllmetabolism'
p287
(lp288
F10638.2432115589
aF9432.586689769978
aF11049.646898000105
aF8630.300518141352
aF6958.135312055619
aF6264.460362710768
aF9660.139364931867
aF8756.408322608755
aF5679.32255720416
aF10057.082026221902
aF10102.8296305182
aF9769.852524783135
aF9415.157980872118
aF10899.155219082702
aF8015.083534125694
aF12002.36466115089
aF5535.338405201632
aF11602.325295515497
aF10917.062330138411
aF8633.850160613802
aF9847.656306081268
aF10236.218447048806
asS'ko00623_Toluenedegradation'
p289
(lp290
F2095.77895073357
aF2441.9165100120294
aF1514.3694686669808
aF1662.2587806731103
aF1980.2467936795395
aF2264.4008837624697
aF1874.7404655721095
aF2026.5535645831312
aF2613.47891013337
aF1659.2713021088803
aF1752.1184643067797
aF2001.554438670919
aF1081.5934700040298
aF1376.6408680177801
aF2255.864456125481
aF1826.4287770844287
aF3183.5640993218913
aF2028.5807019019994
aF1256.2358996737314
aF1500.75782131524
aF1580.8753087062596
aF1763.829739783001
asS'ko05162_Measles'
p291
(lp292
F0.0
aF0.0
aF0.0
aF0.0
aF0.0
aF0.0
aF0.0
aF0.0
aF0.0
aF0.0
aF0.0
aF0.0
aF1.4725321595913197
aF0.0
aF0.0
aF0.0
aF0.0
aF0.0
aF0.0
aF1.5597707954546403
aF1.2905894043216097
aF0.0
asS'ko05210_Colorectalcancer'
p293
(lp294
F0.0
aF3.3534188583350195
aF0.0
aF1.9029519203811105
aF0.0
aF0.0
aF3.958358041738959
aF3.6457001903406216
aF0.0
aF3.3421325715247305
aF0.5774111578189318
aF2.789086247708989
aF2.8588083867971794
aF0.0
aF0.0
aF2.6070071791993183
aF0.0
aF0.0
aF4.032030809548575
aF0.0
aF0.0
aF0.0
asS'ko00051_Fructoseandmannosemetabolism'
p295
(lp296
F14215.6603124345
aF13147.569429909798
aF14514.583380220407
aF13314.357006899103
aF12731.798364692697
aF14237.053030908597
aF16600.457576650097
aF12712.163916505007
aF14038.2056378767
aF13548.704473313803
aF13248.542399123298
aF13823.869257738294
aF13600.162587672696
aF14673.522618352803
aF12266.918260306105
aF16362.98863128549
aF15533.890417928906
aF16808.219072901597
aF13180.585450153616
aF13617.489275553302
aF14790.172640516297
aF13894.21362036461
asS'ko05340_Primaryimmunodeficiency'
p297
(lp298
F636.145178630188
aF632.674260666223
aF569.0912756363953
aF577.028874728012
aF484.1132626552259
aF880.2365872596258
aF882.1924507410438
aF548.1094182443873
aF721.7575833197419
aF689.0310839518171
aF555.0913291516379
aF830.9334849630087
aF715.0343868029267
aF744.7156644069302
aF732.7848067879033
aF771.4789946950565
aF817.2274202261224
aF887.9425373801118
aF658.6859915456237
aF763.104965418633
aF651.4546463206138
aF677.5787619517105
asS'ko00380_Tryptophanmetabolism'
p299
(lp300
F1080.66061836564
aF1290.5553784496296
aF781.7970400909434
aF824.1885731711982
aF1844.7368468437596
aF794.5346298585208
aF634.0085243409179
aF859.7378014778884
aF377.41306538778804
aF811.7669522781762
aF1156.0576586562397
aF768.1380864930957
aF1124.7492686829696
aF608.046283993842
aF654.3272543100113
aF1025.9421488265791
aF655.5174101233843
aF398.7145798113189
aF769.9022102145929
aF808.1191697497371
aF836.8669975117998
aF1146.0874523168407
asS'ko05410_Hypertrophiccardiomyopathy_HCM_'
p301
(lp302
F0.0
aF0.0
aF0.0
aF0.0
aF0.0
aF0.0
aF0.0
aF0.0
aF0.0
aF0.0
aF0.0
aF0.0
aF0.0
aF0.0
aF0.0
aF0.0
aF0.0
aF0.0
aF0.0
aF0.0
aF0.0
aF0.0
asS'ko05031_Amphetamineaddiction'
p303
(lp304
F0.0
aF0.0
aF0.0
aF0.0
aF0.0
aF0.0
aF0.0
aF0.0
aF0.0
aF0.0
aF0.0
aF7.347175356239436
aF0.0
aF0.0
aF0.0
aF0.0
aF0.0
aF0.0
aF0.0
aF0.0
aF0.0
aF0.0
asS'ko05219_Bladdercancer'
p305
(lp306
F45.9267642220118
aF65.71699843772667
aF0.0
aF3.8356161927945105
aF87.24578300227289
aF30.596032350916992
aF1.4982648339156897
aF5.6306267299895625
aF0.0
aF6.537893222063741
aF140.47554572565397
aF23.237296550223192
aF4.949093361455289
aF0.0
aF0.0
aF48.417241832747365
aF38.63097181700771
aF0.0
aF0.0
aF0.0
aF0.0
aF24.236846872747115
asS'ko00260_Glycine_serineandthreoninemetabolism'
p307
(lp308
F14664.8671520968
aF14456.851197154998
aF14526.174342470207
aF14511.474267900803
aF13316.642290000596
aF14310.662842581896
aF15555.540480744796
aF15216.767377145807
aF15184.6264831191
aF14791.797950397404
aF13789.034982568495
aF13968.932104392692
aF14383.415918611196
aF14253.030150603701
aF14823.095706707007
aF14716.663691950489
aF14078.980653481605
aF15544.420060395696
aF13827.842404927416
aF14981.813097957302
aF14406.514417289096
aF13833.652490794408
asS'ko05142_Chagasdisease_Americantrypanosomiasis_'
p309
(lp310
F105.498717170299
aF52.889109762444185
aF7.274287156219944
aF8.917634146548801
aF70.66759521963678
aF17.227295379312697
aF53.40923090988089
aF30.680722390725517
aF7.12855754712193
aF11.256840920893202
aF25.264522262151093
aF93.29571832192286
aF15.470057567690597
aF3.8332822182566506
aF2.017793227498281
aF29.70429612324168
aF43.88413111651172
aF8.078806703590178
aF0.6489118363065497
aF50.517598877352505
aF29.873954144496594
aF34.75664797788242
asS'ko00500_Starchandsucrosemetabolism'
p311
(lp312
F16493.398326518
aF18200.877447901596
aF21087.542050531807
aF22479.236413999904
aF14186.103961221597
aF18708.701392006096
aF16131.997183755697
aF19255.378799860107
aF18157.9857795002
aF20883.682040782805
aF20364.150800145893
aF19596.57055595839
aF18116.762230460496
aF20716.8749912796
aF20358.351365371807
aF18072.174920393387
aF19717.849197884905
aF15640.350762603797
aF20255.451542747323
aF18398.859470620504
aF21048.026328062195
aF19758.33590878141
asS'ko05134_Legionellosis'
p313
(lp314
F2333.15156688652
aF2407.145868020359
aF2491.990276681241
aF2791.8570131306906
aF4182.92737171256
aF2476.1580616317297
aF2110.2337446786196
aF2584.0796120622913
aF3142.9030582425103
aF2194.8018975254704
aF2624.4581280689595
aF2361.6910623680888
aF2336.5857408030693
aF2382.8153622888303
aF3005.8629651962515
aF1911.1087080594987
aF2496.921983053941
aF2188.0215560907995
aF2904.010647201593
aF2618.2859903175504
aF2179.1053399910897
aF2296.8893800751416
asS'ko00950_Isoquinolinealkaloidbiosynthesis'
p315
(lp316
F1486.6475782235102
aF1217.7519801793896
aF936.4732414426935
aF895.3584702897832
aF811.2186701967847
aF1020.7747791269596
aF1228.2470451291297
aF1126.1740589835704
aF1505.7297961843299
aF1032.81794717221
aF842.8457436324068
aF1165.8077636491093
aF869.5826094042468
aF875.3111769195532
aF1094.3856422680703
aF1144.3071369152992
aF1155.3036065701804
aF1326.8440865656796
aF872.9812677000419
aF1181.7281289235802
aF917.0934954054458
aF941.0262492997836
asS'ko00232_Caffeinemetabolism'
p317
(lp318
F0.0
aF0.0
aF0.0
aF0.0
aF0.0
aF0.0
aF0.0
aF0.0
aF0.0
aF0.0
aF0.0
aF0.0
aF0.0
aF0.0
aF0.0
aF0.0
aF0.0
aF0.0
aF0.0
aF0.0
aF0.0
aF0.0
asS'ko00642_Ethylbenzenedegradation'
p319
(lp320
F118.121968977848
aF243.54137599009894
aF7.029351011999503
aF10.382138146303603
aF375.4278886040899
aF119.05263543469796
aF2.4108920059042998
aF11.890041226780205
aF5.271738418986249
aF17.189466615588803
aF97.41223632671377
aF85.74844200235516
aF26.947963025377195
aF18.784079646433902
aF5.115890396439573
aF177.58125022760987
aF360.36811910267716
aF7.5115418638491285
aF13.490375293347615
aF6.153684405431241
aF8.429039387820008
aF105.03256692354506
asS'ko00280_Valine_leucineandisoleucinedegradation'
p321
(lp322
F3895.61149217497
aF3758.4233806100788
aF3090.8500446507114
aF2643.0358782151807
aF3481.163018884899
aF2360.9194348675096
aF3384.7043969077795
aF3731.863804115822
aF2647.5128398443403
aF3456.353726069871
aF2901.5448411123493
aF2676.118418403469
aF2783.122937169819
aF2601.49259241258
aF2501.678414456071
aF3632.1298735837677
aF1995.1365859566206
aF3232.5919646562893
aF2676.807301384773
aF2709.48051004335
aF3293.3418773274793
aF2853.623233523842
asS'ko05166_HTLV_Iinfection'
p323
(lp324
F0.0
aF0.0
aF0.0
aF0.0
aF0.0
aF0.0
aF0.0
aF0.0
aF0.0
aF0.0
aF0.0
aF0.0
aF4.642264093369649
aF0.0
aF0.0
aF0.0
aF0.0
aF0.0
aF0.0
aF0.0
aF0.0
aF0.0
asS'ko04914_Progesterone_mediatedoocytematuration'
p325
(lp326
F562.588552133533
aF663.3377035504528
aF662.1622023363184
aF750.5664591013311
aF529.3369184798729
aF538.0389169690379
aF692.4892700708368
aF698.5783206293213
aF736.728721677803
aF643.0058604349701
aF745.4373975565039
aF672.8029393970867
aF772.0505538919148
aF735.4095592738851
aF810.0506749253234
aF658.2433653948675
aF528.1061023907622
aF752.9431205071749
aF650.5477081510397
aF782.293484257558
aF577.0834179626638
aF706.5584911604394
asS'ko00290_Valine_leucineandisoleucinebiosynthesis'
p327
(lp328
F7646.44531515106
aF7283.250637863358
aF7705.708968264814
aF8253.677352313101
aF8142.077920531218
aF7383.464018004209
aF8134.720100043088
aF7486.451800370154
aF9245.2971948632
aF7785.157853782562
aF8060.750100411289
aF7227.420364716307
aF7933.543297038738
aF7487.761756321751
aF7794.091151408804
aF7412.579469006005
aF7422.336124455613
aF7344.179064691259
aF8124.523778940229
aF8142.90856183134
aF7782.606542973238
aF8044.044572312534
asS'ko01057_BiosynthesisoftypeIIpolyketideproducts'
p329
(lp330
F0.0
aF0.0
aF0.0
aF0.0
aF0.0
aF15.506188091005397
aF0.0
aF0.0
aF0.0
aF0.0
aF0.0
aF0.0
aF0.0
aF0.0
aF0.0
aF0.0
aF0.0
aF0.0
aF0.0
aF0.0
aF0.0
aF0.0
asS'ko00550_Peptidoglycanbiosynthesis'
p331
(lp332
F10794.6431534358
aF10661.407666820998
aF11210.951521358105
aF12567.377965162803
aF9279.101167770228
aF13321.699505571296
aF10791.246588203498
aF10920.337885270304
aF13333.1807212561
aF11353.550831079003
aF10865.813757646198
aF11790.243805316994
aF11186.772759899997
aF11172.2571486745
aF12463.748981159106
aF10295.636456016593
aF12558.162295469805
aF11254.176567238297
aF10824.160963107413
aF11794.0937969043
aF11334.135250382997
aF10573.811209286507
asS'ko05220_Chronicmyeloidleukemia'
p333
(lp334
F0.0
aF0.0
aF0.0
aF0.0
aF0.0
aF0.0
aF0.0
aF0.0
aF0.0
aF0.0
aF0.0
aF0.0
aF0.0
aF0.0
aF0.0
aF0.0
aF0.0
aF0.0
aF0.0
aF0.0
aF0.0
aF0.0
asS'ko00440_Phosphonateandphosphinatemetabolism'
p335
(lp336
F1474.97827980791
aF1521.5956254758596
aF1099.9112617610406
aF955.6279667654612
aF1314.2562888858397
aF1123.5583414772698
aF1258.0769996630097
aF1167.6939499337504
aF843.112119669461
aF1087.1020722927803
aF1329.0790409432095
aF1123.0947691201395
aF896.5981053923017
aF1007.2575305325602
aF1202.0933682336906
aF1478.592685470119
aF1054.6950793202604
aF1500.0229837841298
aF1051.4365818312613
aF907.5128991201282
aF900.1884528184148
aF1358.1973044540207
asS'ko04725_Cholinergicsynapse'
p337
(lp338
F0.0
aF0.0
aF0.0
aF0.0
aF0.0
aF0.0
aF0.0
aF0.0
aF0.0
aF0.0
aF0.8388032999949998
aF0.0
aF0.0
aF0.0
aF0.0
aF0.0
aF0.0
aF0.0
aF0.0
aF0.0
aF0.0
aF0.0
asS'ko00621_Dioxindegradation'
p339
(lp340
F365.642130130902
aF653.7296826568369
aF533.0323100081891
aF437.5939830715301
aF1884.9502297559898
aF789.0267027793368
aF392.76449052747387
aF330.29308798056513
aF190.405362513071
aF439.82011585821806
aF625.4786958611179
aF810.4923411445096
aF611.0815424314899
aF400.845371218429
aF282.58254157748115
aF544.1383628538866
aF408.1366249486031
aF310.2327855656569
aF526.5308517664847
aF412.901568322677
aF435.95511542630487
aF611.6046199349314
asS'ko05111_Vibriocholeraepathogeniccycle'
p341
(lp342
F1046.00152143279
aF1309.3082174593997
aF909.5558829604095
aF945.2156133632542
aF1606.6954169476396
aF1416.3180883218297
aF1098.9861105665898
aF951.2734343292844
aF1331.2829888652
aF966.9093685261852
aF963.4711568418187
aF1049.4632587132394
aF764.4273522078419
aF1179.5932961120502
aF1154.1793693888606
aF1201.3630141050292
aF1686.7616121647104
aF1216.5710954162096
aF939.6787530283251
aF1052.62821239455
aF922.5915575109387
aF1044.4590521274106
asS'ko00561_Glycerolipidmetabolism'
p343
(lp344
F4317.6712587354505
aF4000.982992407329
aF4763.200332146092
aF5454.242766087421
aF5357.090438629439
aF5056.575061426978
aF5413.237306100339
aF4112.932043639372
aF3654.11427813845
aF5127.298309010241
aF5461.045261466119
aF5613.369948115398
aF5616.548227840069
aF4883.127676564341
aF4715.541955486213
aF6378.226396470295
aF5222.072371770292
aF5408.714760739698
aF5407.492496773027
aF5175.602312818811
aF5794.762703809099
aF5325.463340759824
asS'ko00510_N_Glycanbiosynthesis'
p345
(lp346
F469.93301755412
aF433.9036724409869
aF417.0712128597712
aF393.6470644488661
aF266.52083650886595
aF374.7249113916899
aF446.69912459323285
aF507.05244962418027
aF561.63750467023
aF414.7132979746091
aF300.15423999077393
aF295.2955535178889
aF412.5093792063739
aF387.07133830455103
aF518.3657333893702
aF374.32474394967477
aF502.25164805666225
aF475.48890712710687
aF386.9786331134204
aF400.47001280323207
aF372.4709910535529
aF328.2452734124272
asS'ko00780_Biotinmetabolism'
p347
(lp348
F6118.505744398551
aF5931.810393918358
aF5610.464454895033
aF4593.66005694146
aF5388.063399099398
aF4567.590436071419
aF5802.622067632409
aF5724.759646196673
aF4941.90950381056
aF5863.678642143452
aF5390.035988740458
aF4662.264874853848
aF5002.196008119949
aF5996.621076784701
aF4662.363183790662
aF5629.465387131646
aF5178.734169497252
aF5616.579345496609
aF5523.000916245966
aF4396.30572980617
aF5639.598271332109
aF5243.7616824781135
asS'ko04917_Prolactinsignalingpathway'
p349
(lp350
F231.71868232427101
aF235.75272564386395
aF361.0433229586172
aF497.17813753866005
aF482.2277474476589
aF415.60618619736795
aF277.27898529666095
aF228.6077205814031
aF166.36068053075
aF368.4221696391651
aF414.8525586639349
aF573.5155972161588
aF720.8100170708128
aF354.92868003741904
aF329.4847007895452
aF307.99207387872883
aF240.90495686578808
aF232.08243744320293
aF594.2950399549186
aF462.0149297629701
aF598.8097496990329
aF453.40930738136325
asS'ko00983_Drugmetabolism_otherenzymes'
p351
(lp352
F4613.83980886931
aF4784.782120854219
aF4690.521584561782
aF5292.643130630091
aF4342.524690928889
aF5320.244820311559
aF4869.400580325839
aF4878.185265065183
aF5738.290674166479
aF5054.039402417781
aF4849.525850180139
aF5205.021500466817
aF5159.401346097209
aF4614.27751518153
aF5577.302892177552
aF4433.800501973787
aF5223.994427818122
aF5142.317134072048
aF4688.1343465841555
aF5364.355039374711
aF4959.3172621696485
aF4768.822909982882
asS'ko05222_Smallcelllungcancer'
p353
(lp354
F0.0
aF3.3534188583350195
aF0.0
aF1.9029519203811105
aF0.0
aF0.0
aF3.958358041738959
aF3.6457001903406216
aF0.0
aF3.3421325715247305
aF0.5774111578189318
aF2.789086247708989
aF2.8588083867971794
aF0.0
aF0.0
aF2.6070071791993183
aF0.0
aF0.0
aF4.032030809548575
aF0.0
aF0.0
aF0.0
asS'ko00564_Glycerophospholipidmetabolism'
p355
(lp356
F6646.688439649841
aF6964.0594288105785
aF7048.367383310983
aF7462.661253709922
aF7421.359639187228
aF7695.826450321368
aF6021.4463960942685
aF6929.438378156643
aF6860.96235724104
aF6938.003399201152
aF7517.347030825028
aF7961.4444325770655
aF8350.036760082929
aF7589.187917996601
aF7561.397133319803
aF7080.5581853525355
aF7647.632496466923
aF6354.4959535483185
aF8026.19646149045
aF8233.81801795361
aF7562.707179776628
aF8470.610262454155
asS'ko00730_Thiaminemetabolism'
p357
(lp358
F6944.401682050499
aF6991.260230421109
aF7034.3037159168725
aF7288.742357688652
aF4880.025312055259
aF7358.080874291968
aF6591.958521416199
aF6933.027479859604
aF7801.708748915809
aF6834.805897335682
aF6683.794235721319
aF6991.268064353837
aF7134.888093389238
aF7348.024082656791
aF7654.345408848294
aF5588.300558475687
aF8017.900133512762
aF6979.964525875018
aF6855.293371560458
aF7402.626319453041
aF6497.173900518838
aF6972.830383855004
asS'ko04330_Notchsignalingpathway'
p359
(lp360
F0.0
aF0.0
aF0.0
aF0.0
aF0.0
aF0.0
aF0.0
aF0.0
aF0.0
aF0.0
aF0.0
aF0.0
aF0.0
aF0.0
aF0.0
aF0.0
aF0.0
aF0.0
aF0.0
aF0.0
aF0.0
aF0.0
asS'ko05012_Parkinsonsdisease'
p361
(lp362
F3.12844368904613
aF18.976864811679597
aF0.0
aF1.9029519203811105
aF3.2713157044567893
aF0.0
aF7.541694784995788
aF3.6457001903406216
aF0.0
aF10.501750893589703
aF6.029460984628589
aF2.789086247708989
aF2.8588083867971794
aF0.0
aF0.0
aF5.218402417580957
aF0.0
aF6.722399335309668
aF33.43657122278534
aF0.0
aF4.365911335400919
aF0.0
asS'ko05150_Staphylococcusaureusinfection'
p363
(lp364
F64.3745715955186
aF60.44038050115689
aF48.14536479988442
aF379.1136634767811
aF217.43507811300395
aF831.6086047604168
aF128.85013290420198
aF16.423907863309708
aF52.7783901135188
aF249.85555230099405
aF29.724082661368893
aF628.2151323417327
aF170.82773262907196
aF38.3704288708078
aF169.7714474494421
aF111.39259397527091
aF437.2879046938601
aF84.96165387696138
aF152.8605240434492
aF138.09567478842303
aF252.20453730904492
aF60.568691720181036
asS'ko04940_TypeIdiabetesmellitus'
p365
(lp366
F1001.1263071445899
aF1290.4896648090198
aF1069.6286075782305
aF1357.1978426026003
aF1665.6370344388695
aF981.0750736938079
aF880.3717235651147
aF1398.4991609360907
aF906.757621099219
aF1097.8995075987104
aF1080.6721606986298
aF800.8858616934297
aF990.4445475970617
aF991.0831938666761
aF1184.3800723773506
aF904.3844572295964
aF750.6148319070572
aF834.0360397555258
aF1022.3817709868912
aF920.7525970541761
aF935.8823810481988
aF803.5137199062515
asS'ko00300_Lysinebiosynthesis'
p367
(lp368
F9146.48992913128
aF8508.047008638077
aF9262.150392487234
aF10663.479567431801
aF7690.1990528464485
aF9659.525136240047
aF9483.476892971688
aF9099.208527707555
aF9739.48356548854
aF9148.48247618981
aF8884.926527990157
aF10100.972234904297
aF9890.408639408519
aF9340.875432444882
aF10340.750962123504
aF8732.285422755414
aF9621.453727003454
aF9547.946244202329
aF9934.031137049062
aF10047.569228285101
aF9214.712149944407
aF9560.389996694856
asS'ko00400_Phenylalanine_tyrosineandtryptophanbiosynthesis'
p369
(lp370
F11617.455604585399
aF9879.061792755867
aF10397.864471776906
aF11440.297885828602
aF9016.793762688178
aF11747.953321322299
aF10761.002732280896
aF10173.084136674104
aF12049.9171735429
aF10788.477867221001
aF10224.287194803599
aF11133.841267882595
aF11292.731537098198
aF11660.095944124801
aF11803.896803083904
aF11315.408523348393
aF10851.756788288105
aF11242.944240691997
aF11264.328918677013
aF11325.3899292771
aF11198.824149694297
aF10811.274775270505
asS'ko00590_Arachidonicacidmetabolism'
p371
(lp372
F540.414391918315
aF296.44430618705394
aF205.95103569774008
aF179.01285359947403
aF460.1680771439039
aF480.4748008683519
aF75.79071534125659
aF183.7594251522051
aF458.56869528022196
aF160.05183832739203
aF211.22827720047795
aF377.3988502387838
aF166.74292701831996
aF111.47216538133502
aF353.68943030655413
aF305.8689219628818
aF692.9477497626482
aF216.20345093446193
aF173.26368470997122
aF351.44242546355906
aF142.79819408811096
aF246.44952340082313
asS'ko05143_Africantrypanosomiasis'
p373
(lp374
F105.498717170299
aF52.889109762444185
aF7.274287156219944
aF8.917634146548801
aF70.66759521963678
aF17.227295379312697
aF58.803790576082584
aF30.680722390725517
aF7.12855754712193
aF11.256840920893202
aF25.264522262151093
aF93.29571832192286
aF15.470057567690597
aF3.8332822182566506
aF2.017793227498281
aF32.276141355898275
aF43.88413111651172
aF8.078806703590178
aF0.6489118363065497
aF50.517598877352505
aF29.873954144496594
aF34.75664797788242
asS'ko04115_p53signalingpathway'
p375
(lp376
F0.0
aF3.3534188583350195
aF0.0
aF1.9029519203811105
aF0.0
aF0.0
aF3.958358041738959
aF3.6457001903406216
aF0.0
aF3.3421325715247305
aF0.5774111578189318
aF2.789086247708989
aF2.8588083867971794
aF0.0
aF0.0
aF2.6070071791993183
aF0.0
aF0.0
aF4.032030809548575
aF0.0
aF0.0
aF0.0
asS'ko04918_Thyroidhormonesynthesis'
p377
(lp378
F263.85195689590597
aF137.15971692067797
aF94.55298121010865
aF241.09362196156906
aF331.06342954983296
aF664.2891787096058
aF57.29035266678088
aF75.42276103483464
aF345.786961207065
aF152.37427245718203
aF96.04730631158228
aF336.46770914638086
aF65.53971365795118
aF30.816038722635106
aF246.93501204780713
aF124.12315030146391
aF790.1841139210873
aF118.41920379522398
aF117.59807721474513
aF211.90339132803902
aF116.12448745260897
aF127.19505426926507
asS'ko03070_Bacterialsecretionsystem'
p379
(lp380
F8744.48224616529
aF10948.218465994098
aF9122.688153226914
aF9753.340543671313
aF10616.551819517199
aF9980.098013180099
aF8289.436081753918
aF9462.691924846165
aF9294.19127446935
aF8805.859437168372
aF11011.756617840098
aF9384.266288164616
aF10974.536883642197
aF9118.33862873788
aF10041.266356746904
aF10146.459706216692
aF9432.031311260824
aF8756.647595023718
aF10027.48801467801
aF9507.201068974102
aF8757.767369176638
aF10970.803834276405
asS'ko00970_Aminoacyl_tRNAbiosynthesis'
p381
(lp382
F17499.375843663798
aF17276.778537536196
aF18839.193055692307
aF22376.447421896704
aF17560.443954638195
aF20528.721315608793
aF19366.178401774196
aF19204.79515762641
aF22708.278844238797
aF18699.531906709504
aF19551.626690071596
aF20564.619526482293
aF20951.396587806194
aF18732.178534221803
aF22394.59995450561
aF17152.57980217779
aF20210.340311288808
aF18331.860368588998
aF19394.170080078322
aF21623.5545189027
aF18704.971258241396
aF17846.93414043121
asS'ko00626_Naphthalenedegradation'
p383
(lp384
F439.078449673906
aF434.3157833680269
aF551.2400416563213
aF533.6209451645451
aF1993.5973360194594
aF880.8992458412868
aF456.1848046438139
aF361.6748121931142
aF197.827961016741
aF598.7311279772551
aF649.4620707758678
aF808.3844019560777
aF527.1796202889319
aF392.551838396427
aF259.15862075545914
aF537.6705640192566
aF376.00812310342513
aF387.5138451032709
aF512.5670895657466
aF421.34058259531605
aF585.0341090893488
aF407.5093779496203
asS'ko00473_D_Alaninemetabolism'
p385
(lp386
F1695.69298269973
aF1594.3553213999996
aF1701.3749969104908
aF1721.0905788299904
aF1304.8455145712999
aF2020.1934276061597
aF1552.2195294228497
aF1533.3464225610107
aF1873.6481887795999
aF1661.0693586640205
aF1585.6617455033595
aF1833.3057026560691
aF1616.3621957056196
aF1725.3396095822702
aF1634.9475135137106
aF1553.0894977944888
aF1881.6518220289506
aF1771.3745034632796
aF1535.6118125812718
aF1819.5473925289002
aF1663.9391026074695
aF1451.5591158776808
asS'ko00622_Xylenedegradation'
p387
(lp388
F609.131044016762
aF657.1642085052879
aF533.0323100081891
aF437.5939830715301
aF1884.9502297559898
aF799.4862622030038
aF393.3743641083239
aF330.29308798056513
aF190.405362513071
aF441.1468103022171
aF692.0586966666008
aF985.2844481542705
aF636.4816587659839
aF401.53924905967403
aF282.58254157748115
aF614.7091082529556
aF503.75161211497215
aF314.61606460071494
aF526.5308517664847
aF412.901568322677
aF437.1463553026959
aF714.2024517344504
asS'ko00195_Photosynthesis'
p389
(lp390
F5565.32779937789
aF4596.072345063809
aF6439.876046461192
aF6169.645175666511
aF5021.364803310728
aF5574.793111160809
aF6381.449516187348
aF4660.035242651782
aF7235.39533663744
aF5233.292523839241
aF6008.718663522328
aF5824.988224132907
aF4961.821202764649
aF6234.022516253611
aF5443.176846697793
aF5890.601888176176
aF4729.5604055823815
aF6267.0590942112785
aF7348.907215486169
aF6438.955021083731
aF6374.940224828549
aF6181.732660108803
asS'ko00072_Synthesisanddegradationofketonebodies'
p391
(lp392
F512.580840813093
aF349.3273567772939
aF395.5858894738002
aF404.4495726019291
aF1383.2422816996595
aF354.2728465729199
aF130.41651786776296
aF267.05196839709413
aF179.916203298617
aF324.7815394112021
aF490.5083157279649
aF408.9643001339868
aF384.4617598961359
aF292.74965235910304
aF291.82560250676914
aF278.1528074714458
aF301.35554864040114
aF160.13810009826895
aF379.11835713340844
aF401.42288101303706
aF355.56616559913994
aF486.4074107514973
asS'ko05010_Alzheimersdisease'
p393
(lp394
F736.971760098258
aF792.1974955303918
aF785.2363123756874
aF849.8928361984422
aF957.7639981717828
aF776.4921194378097
aF836.2864546606559
aF708.9178396130853
aF898.179938631807
aF795.9003604377162
aF789.9855232580878
aF779.3988932111367
aF779.5450750741828
aF567.4038411294681
aF761.0824101282184
aF704.7346874949675
aF784.1704479780692
aF776.7311021044858
aF785.5912754981309
aF882.8240286276032
aF763.4502697846838
aF728.1681584144874
asS'ko01052_TypeIpolyketidestructures'
p395
(lp396
F0.0
aF0.0
aF0.8120541759499824
aF0.0
aF0.0
aF0.0
aF0.0
aF0.0
aF1.10674923444916
aF0.0
aF0.0
aF0.0
aF0.0
aF0.0
aF0.0
aF0.0
aF0.0
aF0.0
aF0.0
aF0.0
aF0.0
aF0.0
asS'ko00061_Fattyacidbiosynthesis'
p397
(lp398
F6462.3144867591
aF5843.189715843569
aF7070.095380234913
aF6540.276498516301
aF6298.334983031189
aF6789.265839932219
aF6518.409598916558
aF5712.5432899328525
aF6180.36678325708
aF7124.991050871891
aF7092.484367122458
aF6118.931793062167
aF6737.3922198599985
aF7022.032086946941
aF6082.829896833462
aF6606.801103960195
aF7012.999195493272
aF6644.0049598077985
aF6593.708965878668
aF5661.53575686756
aF6896.374284555479
aF5961.471697480793
asS'ko00984_Steroiddegradation'
p399
(lp400
F0.0
aF0.0
aF0.0
aF0.0
aF0.0
aF0.0
aF0.0
aF0.0
aF0.0
aF0.0
aF0.0
aF0.0
aF0.0
aF0.0
aF0.0
aF0.0
aF0.0
aF0.0
aF0.0
aF0.0
aF0.0
aF0.0
asS'ko04930_TypeIIdiabetesmellitus'
p401
(lp402
F751.1985358953091
aF817.6613688878817
aF805.4621769799173
aF785.4339609792372
aF783.3668604274959
aF732.6969025529108
aF1031.8796801375897
aF842.0690236696333
aF859.456039391568
aF770.3571253388142
aF765.3361706875678
aF814.4509166139036
aF822.5745212186408
aF784.6614479697001
aF824.1303606025134
aF924.8679311574024
aF608.7197382425652
aF1023.4803948334999
aF760.9315681118989
aF874.5972694007191
aF743.3422945826259
aF758.6938514326015
asS'ko01054_Nonribosomalpeptidestructures'
p403
(lp404
F141.249682069568
aF94.25338658774268
aF63.35982543636203
aF100.98250984596402
aF68.08954182125699
aF77.1790869270608
aF130.90054550557397
aF123.95994590050307
aF94.8428012357259
aF70.28909639301361
aF59.24330643714058
aF88.29720614822587
aF183.49111720548393
aF145.158132800017
aF127.00674877075106
aF83.40812295379804
aF103.43164146676703
aF69.65941212631598
aF52.53785099751916
aF168.483472097867
aF65.12054421596099
aF80.38875544554266
asS'ko00791_Atrazinedegradation'
p405
(lp406
F155.936416196781
aF170.13875806070098
aF118.91600156820905
aF357.07188004932107
aF134.30458925665397
aF562.6628852758158
aF140.65391371135897
aF88.78784036282674
aF37.9414242863165
aF174.29265775408106
aF199.51939719618895
aF314.74088439163984
aF198.09766345318596
aF81.46294015396151
aF157.21687744935207
aF983.0859641494452
aF159.83047808891106
aF127.06072569229596
aF114.44200586295612
aF119.34020122573602
aF263.752342704009
aF222.21492371688714
asS'ko00750_VitaminB6metabolism'
p407
(lp408
F3382.34908173331
aF3224.2883899538692
aF3044.4699193469514
aF3120.989460380261
aF2634.2861860550997
aF3233.7573757507694
aF3397.9212811586294
aF3302.3048053023717
aF3896.06576441196
aF3229.9602456380308
aF3118.2107528915694
aF2894.0753522446385
aF3125.621442071319
aF3386.1189125637907
aF3852.4541755560517
aF3141.180014146088
aF3430.5637890260114
aF3463.7059216316593
aF2849.4463231382333
aF3580.5424795982603
aF3003.920522081979
aF3147.608631209132
asS'ko04932_Non_alcoholicfattyliverdisease_NAFLD_'
p409
(lp410
F3.12844368904613
aF18.976864811679597
aF0.0
aF1.9029519203811105
aF3.2713157044567893
aF0.0
aF7.541694784995788
aF3.6457001903406216
aF0.0
aF10.501750893589703
aF6.029460984628589
aF2.789086247708989
aF4.331340546388499
aF0.0
aF0.0
aF5.218402417580957
aF0.0
aF6.722399335309668
aF33.43657122278534
aF1.5597707954546403
aF5.656500739722529
aF0.0
asS'ko04011_MAPKsignalingpathway_yeast'
p411
(lp412
F263.614980875253
aF329.7292953800919
aF241.4945439639641
aF158.69044349186703
aF270.5822810143009
aF243.48583262375195
aF260.24552555713393
aF347.7851412653391
aF130.878537416615
aF271.6546061888541
aF239.91472341817195
aF291.04036273877387
aF515.5048223141429
aF264.335589259591
aF230.6613143395061
aF492.90362010912366
aF176.20647797843407
aF349.3504231556119
aF318.9084160816704
aF269.57314387122005
aF299.6237844905479
aF315.8600812854552
asS'ko00540_Lipopolysaccharidebiosynthesis'
p413
(lp414
F6340.768748070581
aF6593.005086893958
aF3666.968819272182
aF3890.222795606741
aF5656.175368970689
aF4796.130845720539
aF4695.107503565279
aF5702.188717175242
aF7111.69438506211
aF4558.531481415481
aF3378.787305953429
aF3454.7132005076987
aF2917.689412914769
aF3841.9947386437902
aF5851.777924794823
aF4936.756059846057
aF7731.003247711493
aF5684.196308508529
aF3265.6605388686735
aF4680.37688931943
aF3477.139233097589
aF3782.8948547471723
asS'ko04612_Antigenprocessingandpresentation'
p415
(lp416
F562.588552133533
aF663.3377035504528
aF662.1622023363184
aF750.5664591013311
aF529.3369184798729
aF538.0389169690379
aF692.4892700708368
aF698.5783206293213
aF736.728721677803
aF643.0058604349701
aF745.4373975565039
aF672.8029393970867
aF772.0505538919148
aF735.4095592738851
aF810.0506749253234
aF658.2433653948675
aF528.1061023907622
aF752.9431205071749
aF650.5477081510397
aF782.293484257558
aF577.0834179626638
aF706.5584911604394
asS'ko04146_Peroxisome'
p417
(lp418
F3144.39506485016
aF3329.582532512409
aF2692.314708592731
aF2795.2243833278408
aF2936.808324232099
aF2868.194626264329
aF2770.6649631784394
aF3410.9654135046617
aF3684.12471080472
aF2979.9739135390305
aF2373.486000876749
aF2342.675312363449
aF2566.6093026125395
aF3098.0097672878505
aF3036.6544401509113
aF2276.0745470715888
aF3298.7490286927914
aF2546.1688348412595
aF2184.8076260687926
aF2622.597156487
aF2619.277556008419
aF2627.9536512176314
asS'ko00401_Novobiocinbiosynthesis'
p419
(lp420
F2370.48401593801
aF2010.6994709915593
aF1915.309907520501
aF1852.0106388707304
aF1331.9105760419695
aF1905.6466900651694
aF2068.0837437540094
aF2079.700106490171
aF2291.48369408245
aF1967.4393943054704
aF1893.3785000788496
aF2025.282195247949
aF2093.4748990863795
aF1976.69911366521
aF2073.370292319741
aF1920.4970235131186
aF1821.2846916526807
aF2221.9349951515496
aF1901.8684120606722
aF2124.7400431706405
aF1946.4811410420996
aF1984.356520473001
asS'ko04622_RIG_I_likereceptorsignalingpathway'
p421
(lp422
F84.4167884183671
aF0.0
aF0.0
aF1.1008483909705704
aF22.463056982354694
aF27.358131384385594
aF126.95341724522498
aF22.41079044654151
aF6.79500673288949
aF2.4297545782890406
aF24.283891330593093
aF64.01180077374707
aF17.750681931122095
aF0.0
aF1.1091754383266905
aF125.77555121587191
aF103.42136208352603
aF128.65389925729596
aF18.01309885389542
aF22.895143754886902
aF3.3429035487373593
aF27.459328724700015
asS'ko05014_Amyotrophiclateralsclerosis_ALS_'
p423
(lp424
F194.491916153635
aF222.98055866093296
aF73.47857638102843
aF111.28473232393301
aF732.7857820586569
aF83.29958588048848
aF296.2895995663989
aF204.6497920935751
aF35.5758796481241
aF165.08852170503604
aF125.70416721764498
aF108.73532088064195
aF105.13911577424898
aF92.68780002709441
aF134.6715012545671
aF201.65472075350385
aF115.17549333354204
aF162.47257654947197
aF115.51125577561014
aF49.3796769326928
aF122.76097293915898
aF143.85904774722508
asS'ko00100_Steroidbiosynthesis'
p425
(lp426
F0.0
aF0.0
aF0.0
aF6.994493237007911
aF29.09439178536759
aF0.0
aF2.1983603889089296
aF11.359577684820305
aF0.0
aF0.0
aF1.3451809575296196
aF0.0
aF0.0
aF1.8264684915102702
aF0.0
aF1.609575436993359
aF0.0
aF0.0
aF1.683251513421832
aF0.0
aF0.0
aF0.0
asS'ko03022_Basaltranscriptionfactors'
p427
(lp428
F0.0
aF0.0
aF0.0
aF0.0
aF91.01747923319837
aF1.3886275173879796
aF0.0
aF0.0
aF0.0
aF0.0
aF0.0
aF0.0
aF5.982433754076048
aF0.0
aF0.0
aF4.6533810646805565
aF0.0
aF0.0
aF0.0
aF0.0
aF2.7651830596611893
aF0.0
asS'ko04626_Plant_pathogeninteraction'
p429
(lp430
F3845.22287590501
aF3255.406545196969
aF3174.4263955706215
aF2940.6880423758607
aF5322.611781387798
aF2465.1596038405596
aF2959.064310085439
aF3593.1340087779317
aF3441.25756690983
aF3072.2512008558906
aF3455.3846391343395
aF3381.7258169135785
aF3175.3391918224793
aF3170.6138782113703
aF3184.5030254552917
aF2957.0342524396683
aF2641.1787772032408
aF2873.091581235469
aF3700.3873306020146
aF3294.4926597342906
aF2856.282213295109
aF3200.683286383082
asS'ko02060_Phosphotransferasesystem_PTS_'
p431
(lp432
F6717.87487403627
aF4495.0861009313685
aF4726.787932089432
aF5873.292734484291
aF9342.183357686177
aF8270.064520396258
aF8468.171708494368
aF2416.0612554675013
aF1811.9588133546001
aF5215.617037425241
aF5579.0549537074485
aF9458.950208175296
aF5385.559650173889
aF5020.106635144921
aF2963.997359543161
aF11854.689868615193
aF6030.417257694802
aF9209.417676269997
aF5347.915526200996
aF5224.59591636677
aF8101.108229568589
aF7088.167103505314
asS'ko00250_Alanine_aspartateandglutamatemetabolism'
p433
(lp434
F18407.850387488998
aF18492.879322154196
aF19033.796925868308
aF18650.270898614304
aF13739.036717152396
aF18139.167484018595
aF19220.748255988794
aF21552.69290168491
aF21815.3392198038
aF18328.378061850806
aF18000.438220375294
aF16830.62345802549
aF17631.283159253995
aF18333.3565663345
aF19688.677891412408
aF17151.15517674829
aF19716.872643385806
aF19306.190200217196
aF17477.72839799782
aF19266.150559884
aF17184.281850133597
aF16604.27484898601
asS'ko00625_Chloroalkaneandchloroalkenedegradation'
p435
(lp436
F1014.1021507653701
aF975.7022212643318
aF984.7762170375504
aF1041.1016737119303
aF2429.636747433169
aF1443.8679343755198
aF813.9388648649967
aF888.1012333362514
aF587.598791676903
aF1215.3317437690903
aF1252.0191552808499
aF1437.2558165626992
aF1272.9847519018897
aF780.3569002210982
aF616.1984543104312
aF1036.3509161358693
aF874.0878024400323
aF768.4154931540648
aF1112.6159841417514
aF1052.2630997492602
aF1354.7483066886998
aF1027.0312443964108
asS'ko00040_Pentoseandglucuronateinterconversions'
p437
(lp438
F7995.63036850097
aF8178.419653593408
aF8806.379590886485
aF7100.994643155422
aF6444.097180522858
aF7092.469280141618
aF7864.257765860588
aF7803.0766904034235
aF7181.63762223138
aF7796.456112043022
aF8161.781481681408
aF6910.617376860357
aF7444.636206683398
aF8186.958402745811
aF7095.891766250373
aF7543.5251437906845
aF8745.954670996973
aF7158.423850850838
aF7550.039937987149
aF7076.512387864271
aF7870.406165237858
aF8432.416821298135
asS'ko04070_Phosphatidylinositolsignalingsystem'
p439
(lp440
F1420.7884085808
aF1413.4901970530398
aF998.3829620032034
aF973.2281676667602
aF1175.3905011315398
aF1197.9180472930198
aF1306.0649499979597
aF1303.9610079793706
aF1044.2771304812402
aF1370.0433183275502
aF1048.9988847393997
aF1195.8590382954494
aF1037.1538728033797
aF1245.0119287347602
aF1002.2854692710005
aF1192.5639550865592
aF974.0528894656513
aF1191.4046036198597
aF1035.3468252093812
aF1022.4223980338701
aF1303.8476810492598
aF1251.0002186017707
asS'ko00740_Riboflavinmetabolism'
p441
(lp442
F3074.37012189705
aF2859.4807402373094
aF2406.782216356711
aF2694.9575092033506
aF2570.610737127229
aF3057.9950527506494
aF2718.1955745067994
aF2756.9400530526013
aF3308.24808120795
aF2821.305762077871
aF2128.4699601670995
aF2804.910845591599
aF2363.6991552211994
aF2792.19853518633
aF3221.7512204194213
aF2677.655878591368
aF3931.2181962393215
aF3397.409312274079
aF2764.130610212903
aF2890.55580853154
aF2709.090905494679
aF2899.1371786220416
asS'ko00360_Phenylalaninemetabolism'
p443
(lp444
F4520.10846174323
aF4382.0507182517795
aF3033.0057614726916
aF2313.5630234204204
aF3810.274181026259
aF2603.8946557129693
aF3237.8135342057294
aF3201.4368860428417
aF2766.1603202760402
aF3136.1941640856207
aF3416.150330044369
aF3225.9334024775485
aF3447.7845468191495
aF3416.5287274663206
aF2702.4932883479414
aF3665.3316255463974
aF2732.630718702481
aF3502.905602973219
aF2736.593413403423
aF3018.76201250796
aF2937.4719244288394
aF3406.581836197732
asS'ko05120_EpithelialcellsignalinginHelicobacterpyloriinfection'
p445
(lp446
F1458.70547865601
aF1947.4119550399494
aF1732.370053374471
aF1810.4446505207504
aF1214.2957515115397
aF1662.1800027607296
aF1816.4629636004597
aF1748.5910219272907
aF1653.1788587711098
aF1533.2676783557304
aF1562.2027926127096
aF1591.5558237365692
aF1516.2873238282295
aF1649.93859789077
aF1641.7894999791506
aF1841.9496914357387
aF1421.8596317190704
aF1728.3697163918296
aF1517.6421535919517
aF1582.2884831788504
aF1495.8403803635797
aF1529.1411696683008
asS'ko00650_Butanoatemetabolism'
p447
(lp448
F8035.68609957016
aF8195.092068540149
aF7025.093794710943
aF6916.357776112452
aF12009.539444363198
aF7612.779454070218
aF6352.742944160508
aF7421.257649813803
aF6665.761445989029
aF7841.035362297803
aF8151.791124880629
aF7932.730921862587
aF6902.882899912908
aF6211.91725417516
aF6520.848622437963
aF6925.0618277137755
aF7573.499285742752
aF6416.190185381999
aF7141.954612134238
aF6771.821151781191
aF7569.599191799089
aF7772.106191159754
asS'ko05030_Cocaineaddiction'
p449
(lp450
F0.0
aF0.0
aF0.0
aF0.0
aF0.0
aF0.0
aF0.0
aF0.0
aF0.0
aF0.0
aF0.0
aF7.347175356239436
aF0.0
aF0.0
aF0.0
aF0.0
aF0.0
aF0.0
aF0.0
aF0.0
aF0.0
aF0.0
asS'ko00020_Citratecycle_TCAcycle_'
p451
(lp452
F11075.6914043187
aF11285.568993431698
aF9747.383837271205
aF9532.149598880362
aF11501.930820047697
aF9748.807026618328
aF12021.355591455198
aF11814.236087209905
aF12814.8284099227
aF10799.120092062803
aF9291.087570435307
aF9289.451408813096
aF8469.893157943417
aF9174.19218151723
aF11135.231632855706
aF10350.223193836593
aF11211.816738749805
aF11538.267242700198
aF9308.59797903698
aF9762.630261039061
aF9507.216967140937
aF8706.805482264905
asS'ko00945_Stilbenoid_diarylheptanoidandgingerolbiosynthesis'
p453
(lp454
F0.0
aF0.0
aF0.0
aF0.0
aF10.636018703058797
aF0.0
aF0.48859839305857183
aF0.0
aF1.00327777172881
aF7.494416488358922
aF4.213979355895409
aF1.1873995201100493
aF0.0
aF0.0
aF0.0
aF0.0
aF1.7346658713698806
aF4.37346548872048
aF11.183790383787313
aF0.0
aF0.0
aF3.567466613030902
asS'ko04721_Synapticvesiclecycle'
p455
(lp456
F0.0
aF0.0
aF0.0
aF0.0
aF0.0
aF0.0
aF0.0
aF0.0
aF0.0
aF0.0
aF0.0
aF0.0
aF0.0
aF0.0
aF0.0
aF0.0
aF0.0
aF0.0
aF0.0
aF0.0
aF0.0
aF0.0
asS'ko00190_Oxidativephosphorylation'
p457
(lp458
F16824.8658931105
aF18636.728359135694
aF14720.666708362707
aF16641.487224297405
aF19012.361119457895
aF15518.811607695396
aF18265.560302747297
aF17594.28772651381
aF20337.0681728129
aF17306.854524451603
aF15838.466575278897
aF17203.24651064309
aF16292.077641079195
aF15273.727783009303
aF17469.31967749721
aF17531.38795856449
aF16768.703090286905
aF18381.796552743996
aF16106.04342169802
aF16930.3144737244
aF16890.184734228897
aF16229.29523415741
asS'ko00790_Folatebiosynthesis'
p459
(lp460
F6531.21001377127
aF6051.809196561308
aF4479.068261570712
aF5207.515149601691
aF4014.6579362165794
aF6333.736331268628
aF5918.573254081199
aF6276.488651538442
aF6235.85792827814
aF5447.782470522051
aF4207.561038234019
aF5935.157329625797
aF5181.522215658589
aF4846.466080861581
aF5726.961657979113
aF5508.2672259266765
aF6707.9008860191125
aF6385.888233480008
aF5155.172211085555
aF5492.008208858221
aF5680.448296179749
aF5306.950601991623
asS'ko00982_Drugmetabolism_cytochromeP450'
p461
(lp462
F373.20185679796896
aF295.9464207117359
aF185.7407835711911
aF155.16219229553903
aF797.3203153586818
aF229.62221900865094
aF92.88469047956987
aF110.97431843250506
aF42.3309578305157
aF214.95333384941105
aF382.6753887258929
aF286.2099665770249
aF130.66742153172197
aF196.92365456671203
aF60.01129043881923
aF242.7618719235888
aF338.8289595197311
aF92.14449938444598
aF102.25487205174412
aF103.65776513265502
aF202.43168952645794
aF281.0322183219402
asS'ko00363_Bisphenoldegradation'
p463
(lp464
F210.85593214031599
aF217.88525960327294
aF155.3856570907631
aF85.65225300968152
aF136.09722638828697
aF228.47300304278295
aF120.04768656960097
aF244.15259107841212
aF113.47508644759901
aF329.48170962745206
aF218.62944830219595
aF152.69596887864094
aF146.01606261328297
aF197.76146662220302
aF94.25955194766605
aF188.89172261429988
aF240.23787233103408
aF169.21167070260094
aF136.37922033112915
aF145.03744343233603
aF293.7474997147579
aF173.86444160758208
asS'ko00600_Sphingolipidmetabolism'
p465
(lp466
F4412.2393553114
aF4614.509372071239
aF6222.032929547033
aF5396.9435045749315
aF4024.342773858239
aF5291.2217993161785
aF4894.198418976199
aF6244.962920570623
aF7450.53425333858
aF6555.301204884721
aF5291.183475663469
aF4772.120380934408
aF3992.448733183619
aF5611.605014235281
aF4822.992447966312
aF4230.245022917847
aF6745.028791462902
aF4681.523322125139
aF4977.142059308276
aF5603.311326546881
aF7019.331459623909
aF4874.198151896402
asS'ko04915_Estrogensignalingpathway'
p467
(lp468
F562.588552133533
aF663.3377035504528
aF662.1622023363184
aF750.5664591013311
aF529.3369184798729
aF538.0389169690379
aF692.4892700708368
aF698.5783206293213
aF736.728721677803
aF643.0058604349701
aF745.4373975565039
aF672.8029393970867
aF772.0505538919148
aF735.4095592738851
aF810.0506749253234
aF658.2433653948675
aF528.1061023907622
aF752.9431205071749
aF650.5477081510397
aF782.293484257558
aF577.0834179626638
aF706.5584911604394
asS'ko04973_Carbohydratedigestionandabsorption'
p469
(lp470
F242.84104084397902
aF205.49094021999196
aF55.30738479518762
aF389.44412702822007
aF268.80024375061794
aF385.2975148182699
aF220.45726449019594
aF155.83500321838108
aF201.190404864222
aF176.33467466003202
aF112.01423712872997
aF358.4585292689788
aF134.45469129817897
aF87.0555554749051
aF421.1560182366792
aF404.16248784876075
aF316.2026295189181
aF403.1603413030079
aF123.57948015424414
aF238.66224175745603
aF141.78219201918796
aF143.6043540157481
asS'ko05145_Toxoplasmosis'
p471
(lp472
F0.0
aF3.3534188583350195
aF0.0
aF1.9029519203811105
aF0.0
aF0.0
aF3.958358041738959
aF3.6457001903406216
aF0.0
aF3.3421325715247305
aF0.5774111578189318
aF2.789086247708989
aF2.8588083867971794
aF0.0
aF0.0
aF2.6070071791993183
aF0.0
aF0.0
aF4.032030809548575
aF0.0
aF0.0
aF0.0
asS'ko04310_Wntsignalingpathway'
p473
(lp474
F0.0
aF0.0
aF0.0
aF0.0
aF0.0
aF0.0
aF0.0
aF0.0
aF0.0
aF0.0
aF0.0
aF0.0
aF0.0
aF0.0
aF0.0
aF0.0
aF0.0
aF0.0
aF0.0
aF0.0
aF0.0
aF0.0
asS'ko04141_Proteinprocessinginendoplasmicreticulum'
p475
(lp476
F884.5983657473371
aF957.3674219471508
aF942.5599140800914
aF1062.8903689465003
aF750.2969836574279
aF1112.5956614281297
aF1112.6014604885697
aF1090.2877108538905
aF1232.92239265572
aF875.2734760491062
aF937.5304171827768
aF1006.1817185361195
aF1101.0604669469396
aF1337.2695096571201
aF1311.3343138044306
aF1115.913587407459
aF1343.6091084000104
aF1324.3502705609096
aF861.657735915458
aF1179.5758949038602
aF775.9944292463779
aF905.1347961920804
asS'ko00053_Ascorbateandaldaratemetabolism'
p477
(lp478
F2148.8143499876
aF1923.0960474074595
aF1270.2069955695106
aF1990.6995780768805
aF2637.8506965084293
aF1895.9439097116197
aF1415.6208217948197
aF1470.2519006291707
aF1086.2154034413802
aF1427.6613412865902
aF1893.2395152719996
aF1771.698340764989
aF1633.7380060488297
aF1062.9294826851901
aF1596.9840775628509
aF1828.7381436689886
aF1918.1623142578705
aF1886.3508707945196
aF1320.8705426684016
aF1177.1012018585002
aF1795.9953882128195
aF2357.5901230835216
asS'ko01040_Biosynthesisofunsaturatedfattyacids'
p479
(lp480
F1138.59772580126
aF1297.5446785007198
aF1413.9641144562606
aF1171.3621795587303
aF1589.7423030288596
aF1333.0989096203998
aF1164.8187569577099
aF1111.8917687315104
aF1294.8518322473299
aF1375.2184385991402
aF1464.4045868433398
aF1124.6117048151295
aF1456.2035270900296
aF1266.9619435290101
aF1133.3822323130605
aF1352.016422666939
aF1606.2322638019007
aF1128.3174459458996
aF1583.7071757744618
aF1149.4221354457602
aF1429.7375938589496
aF1389.0989749904707
asS'ko00603_Glycosphingolipidbiosynthesis_globoseries'
p481
(lp482
F2436.26724686329
aF2730.7162311540396
aF2711.757679375601
aF2720.5076231234107
aF1649.8024361188097
aF2620.213289027359
aF2928.0489332854295
aF3583.0122080269116
aF3173.07909485574
aF3638.549946477741
aF2230.7441952078198
aF2259.6620794658193
aF2131.4145449865896
aF3156.1182913114703
aF2387.049815883041
aF2753.244736797078
aF3600.0525836826814
aF3027.3322378410494
aF2129.301914029272
aF2397.6189074992803
aF3227.3636904274695
aF2285.8773578531814
asS'ko01212_Fattyacidmetabolism'
p483
(lp484
F8523.75639601337
aF8230.727327042228
aF8999.706229710675
aF8366.575398260682
aF8768.489476755998
aF8579.091925631797
aF8021.129233325458
aF7815.808108674854
aF8600.51364992045
aF9008.675703297182
aF8875.917261082788
aF7493.091955748807
aF8227.613059521907
aF9122.20342792588
aF8027.448359140214
aF8047.363587643114
aF8982.008685173512
aF8148.581574221857
aF7797.057657746529
aF7509.225818366761
aF8458.060574421428
aF7909.196521045885
asS'ko00920_Sulfurmetabolism'
p485
(lp486
F5682.33496116773
aF5294.749227768829
aF4169.2031915101725
aF3807.332085798621
aF5428.962995678658
aF4296.76262172837
aF4185.458219509429
aF4059.8520025041917
aF2714.0457177821204
aF4368.79974176483
aF4626.4121040375785
aF4200.691704114178
aF4321.535122540258
aF5341.56140094312
aF3796.154003828432
aF4811.062954042077
aF3685.581196484511
aF3788.060010461439
aF4269.203434617555
aF3344.7972368525
aF4407.044141421999
aF5565.078823757753
asS'ko00670_Onecarbonpoolbyfolate'
p487
(lp488
F8086.18192948357
aF8214.709165521437
aF8145.728534762984
aF8065.550853759882
aF6525.841400026278
aF8440.759355727258
aF9637.329021145119
aF9543.976043175993
aF8695.75832748312
aF8282.541481662673
aF7450.0222366276885
aF11375.753385732995
aF8213.524744186
aF8347.46758511583
aF9041.150421705725
aF8180.128734453284
aF9286.879554443592
aF9626.247052009758
aF8059.384958554399
aF8432.80298021748
aF7746.908777471568
aF7622.023172866675
asS'ko00900_Terpenoidbackbonebiosynthesis'
p489
(lp490
F6944.3910144394895
aF6980.924106457768
aF6763.171983832373
aF7617.9258726674425
aF5774.235197048489
aF8684.157433884859
aF7071.659894819449
aF7079.897663008794
aF8608.00397920473
aF6949.637803877372
aF6904.433652954728
aF7202.980979133246
aF7336.715923819449
aF7053.087678886401
aF8110.281799368704
aF6240.490741948346
aF10195.272553982204
aF7407.131074954008
aF6819.238524606588
aF8143.263950237661
aF6994.806258960758
aF6944.748303049324
asS'ko00312_'
p491
(lp492
F134.12998190107302
aF109.10400058602097
aF76.48402171736014
aF93.98608512042073
aF218.10191400973795
aF237.25651146255893
aF89.92922280467377
aF26.659902423941112
aF36.4267735089658
aF91.94311020426062
aF49.87241138226859
aF198.2882053910659
aF305.6081343155149
aF61.0996867120009
aF134.65403251960007
aF309.2826792187828
aF89.97055909253133
aF124.42486579000999
aF299.61517428508336
aF121.07672107373001
aF165.96293296636296
aF200.23037257829614
asS'ko03010_Ribosome'
p493
(lp494
F25485.795638272102
aF23797.762244483394
aF27954.083815565413
aF28895.501675555908
aF28642.016676203795
aF33974.94922700479
aF31974.078835895496
aF26710.817403654713
aF29409.165200351898
aF25676.615895424307
aF28337.217394170293
aF30692.564650073884
aF35244.40704093759
aF30524.0193538519
aF34848.664836695214
aF32081.61530930608
aF34243.67722225061
aF35009.352586641195
aF32639.745592867734
aF34584.82880918631
aF29542.561146491393
aF30804.738111169518
asS'ko02040_Flagellarassembly'
p495
(lp496
F1843.73428211681
aF4670.984325603149
aF2500.5617153402914
aF1194.7608335613502
aF12654.082022225497
aF1722.2120205384595
aF792.1134756304039
aF1963.970011775651
aF2309.48806016528
aF800.1708277849513
aF5394.121596098288
aF1539.5442602075693
aF2679.8081031781494
aF4356.30529859828
aF2516.4705548937213
aF1693.1567275659888
aF2217.5889334138706
aF1085.3836775039497
aF5718.432241969477
aF2256.7813475905004
aF546.9662778197029
aF2520.3488489879314
asS'ko00121_Secondarybileacidbiosynthesis'
p497
(lp498
F755.470394567767
aF577.7439240917798
aF873.5540982857354
aF842.9879126085392
aF342.8076437554399
aF329.7530256770779
aF728.9790645056328
aF1097.6023524710206
aF647.861837624793
aF932.9813664227452
aF685.7209105468268
aF506.51726360619574
aF1116.5833428819797
aF767.5568543340071
aF536.3008243005872
aF467.8738823958227
aF264.7984130091261
aF514.3769963005659
aF1291.8641491449314
aF1114.5795978165502
aF1115.8636988448097
aF765.3329008100815
asS'ko00633_Nitrotoluenedegradation'
p499
(lp500
F839.384040183108
aF924.1807735470488
aF746.9688220406944
aF719.1613836614741
aF2297.0459324511194
aF464.6459900541409
aF1314.3901766033698
aF476.4760368137132
aF390.47416304230404
aF915.3479834375753
aF765.0702184009808
aF1122.0917524167896
aF819.0429715680998
aF690.8722631618431
aF475.62309911891026
aF1603.8499557045088
aF385.4366034228621
aF1270.6059074153598
aF971.4183993772001
aF897.5721747099101
aF965.4343509787228
aF673.0136639312834
asS'ko03015_mRNAsurveillancepathway'
p501
(lp502
F0.0
aF0.0
aF0.0
aF0.0
aF0.0
aF0.0
aF0.0
aF0.0
aF0.0
aF0.0
aF0.0
aF0.0
aF1.9173133159524496
aF0.0
aF0.0
aF0.0
aF0.0
aF0.0
aF0.0
aF0.0
aF1.7675638241405296
aF0.0
asS'ko03050_Proteasome'
p503
(lp504
F9.30057902335008
aF1.0144530596883397
aF5.269705993751603
aF4.285236379863891
aF9.525571518328277
aF7.200783400495278
aF14.779089140880798
aF17.089727174946606
aF1.2556716486300998
aF40.124838528438914
aF7.679680872594457
aF13.192794769324493
aF3.706543008537089
aF3.5204167738340306
aF0.0
aF1.5626623218219589
aF3.702947281739411
aF7.673003848736978
aF0.9801775562285371
aF19.534456180357605
aF75.97335002795099
aF0.6224607713605934
asS'ko05133_Pertussis'
p505
(lp506
F1957.41373186688
aF1483.0092907568098
aF434.6642172562892
aF455.2124037853741
aF1264.0388152081796
aF1039.8108437389697
aF714.3991853475839
aF826.2921025272764
aF620.0975352729031
aF654.4767828762472
aF591.0897060554819
aF1195.6243941228395
aF378.03197297142293
aF496.1029920690831
aF631.8669369590942
aF935.2194195020693
aF825.9923593704613
aF553.6844409055808
aF306.98826203409135
aF346.15197306303
aF445.6909470102519
aF759.9224139784494
asS'ko04910_Insulinsignalingpathway'
p507
(lp508
F1458.10124083165
aF1620.5424507805596
aF2039.235075000671
aF1724.9383987022904
aF2340.3883758787097
aF1210.1251075261798
aF1536.4880577501997
aF1684.7006854789108
aF1573.6126693500898
aF2363.7729571711307
aF2069.29218427721
aF1798.844819206999
aF1660.9634623625896
aF2043.3046375307504
aF1505.2259724005107
aF1988.0746770204585
aF1054.1401404979704
aF1737.1021349959497
aF1821.168615036242
aF1680.7610549606102
aF1886.0015295122196
aF1518.0344216036408
asS'ko04920_Adipocytokinesignalingpathway'
p509
(lp510
F1552.84788903821
aF1674.7242489646196
aF1503.5304039956607
aF1512.3715460735802
aF1653.0680637279797
aF1391.8542107216797
aF1389.2360660712395
aF1834.3528054236908
aF2263.52749520805
aF1536.3307435419804
aF1200.1312220797597
aF999.7996325251316
aF1160.8517434890998
aF1806.3324663905203
aF1709.3021754210608
aF974.3597161916853
aF1589.9986783385507
aF1342.4948926770696
aF851.694037788207
aF1423.89103508436
aF1224.4132468548296
aF1302.3654049520308
asS'ko00930_Caprolactamdegradation'
p511
(lp512
F138.21850765686
aF165.24073833303697
aF6.735324786640253
aF17.861607717377805
aF245.04013853708693
aF102.37820774552998
aF12.171200078665697
aF4.289024656037403
aF1.26832688913895
aF13.577955630151102
aF220.68520611526995
aF83.05666300382066
aF46.37802516826789
aF3.8181492125306202
aF8.364928987277205
aF180.09727018960086
aF192.00487222362707
aF4.383279034945248
aF3.1161170796785433
aF10.2606001692344
aF8.640498666664309
aF146.17718830925207
asS'ko00270_Cysteineandmethioninemetabolism'
p513
(lp514
F15423.958700388699
aF13791.534807968797
aF15330.597353226007
aF15233.367894011104
aF12841.516418752897
aF15403.025844269696
aF15427.660144165697
aF14518.785063808607
aF14700.5289248587
aF14521.145715270504
aF14897.067406316997
aF15338.038732594892
aF15442.594193354797
aF14108.817130627102
aF15358.580913133907
aF14368.94082547569
aF14541.671095672405
aF14848.253091293596
aF15817.307852718219
aF15583.902566208502
aF14508.525790844797
aF15082.391428497309
asS'ko01200_Carbonmetabolism'
p515
(lp516
F44031.575505484805
aF45978.89157608819
aF43843.79507792892
aF42810.14004287491
aF44407.44598457329
aF41749.48076340729
aF48763.75641348019
aF45124.10592907642
aF45273.5347418179
aF45045.26461054901
aF44025.43459716839
aF42229.79136050288
aF43990.47173894379
aF42249.87968526981
aF44358.85642791102
aF45641.33264876937
aF41533.17805553642
aF46653.93261604239
aF43420.77308153575
aF44840.259255207304
aF44111.60773141979
aF42923.27667978823
asS'ko00340_Histidinemetabolism'
p517
(lp518
F7818.45740204796
aF6616.920134846809
aF7844.143420525314
aF6348.530542364312
aF4149.376510016639
aF5917.7195034279985
aF6745.150493269549
aF7613.866600357814
aF5567.6960727672995
aF7037.640521953262
aF6646.686260517658
aF6184.669245799007
aF7475.195285058288
aF8082.73591556955
aF6542.3043333600735
aF6856.641249222255
aF5131.424885843072
aF6825.020516766478
aF6516.918407774967
aF6432.682122727521
aF7235.069890934548
aF7009.5879493484035
asS'ko00521_Streptomycinbiosynthesis'
p519
(lp520
F4825.39352358101
aF5177.537081759859
aF5746.924191595923
aF5927.923048123552
aF4172.829923829289
aF5051.040544107479
aF4459.419137382569
aF5533.628928327853
aF5451.83069625808
aF5611.082326553721
aF5441.717307602499
aF5094.377971572988
aF5411.113562883229
aF5337.719881881771
aF6141.741880439363
aF4334.8949478385875
aF4852.382900092952
aF4554.464108498409
aF5327.886725560416
aF5447.47727417808
aF5645.388382241929
aF5710.849140753163
asS'ko00071_Fattyaciddegradation'
p521
(lp522
F2799.0277869657903
aF3051.127207665549
aF2635.7469818474215
aF2592.2204176524506
aF4813.254767518079
aF2857.8590639053396
aF2121.5487889674196
aF2627.4591822249413
aF2693.4879236401102
aF2690.9566510383106
aF2779.059205599929
aF2484.787269253469
aF2429.5366868042597
aF2628.7316266893704
aF2331.156806098001
aF2286.0558648900183
aF2510.230338394961
aF1977.5651144377293
aF1974.0935396863424
aF2514.04486592011
aF2450.955481045409
aF2650.0322862061917
asS'ko01056_BiosynthesisoftypeIIpolyketidebackbone'
p523
(lp524
F0.0
aF0.0
aF0.0
aF0.0
aF0.0
aF0.0
aF0.0
aF0.0
aF0.0
aF0.0
aF0.0
aF0.0
aF0.0
aF0.0
aF0.0
aF0.0
aF0.0
aF0.0
aF0.0
aF0.0
aF0.0
aF0.0
asS'ko03320_PPARsignalingpathway'
p525
(lp526
F2025.99587669803
aF2114.0129403157193
aF2097.188193998301
aF2034.3582296918407
aF2536.8979170573093
aF1759.3564221973295
aF1832.1891800072494
aF2352.501066102071
aF2538.86399559732
aF2075.800619194241
aF1877.2733382389195
aF1577.5761038599692
aF1889.1677786962196
aF2403.6780217855103
aF2159.211120257451
aF1615.216532778409
aF1782.3641754941507
aF1731.2377676476096
aF1489.6119375429419
aF1995.6102188841603
aF1846.0912493720596
aF1943.1309682520612
asS'ko00591_Linoleicacidmetabolism'
p527
(lp528
F263.526193184348
aF227.87194806687594
aF170.69137448874508
aF102.36493408115602
aF156.96160616679197
aF265.7383807025519
aF119.92559966625298
aF263.66375707751115
aF117.142115490737
aF335.07931637228705
aF250.02137246845496
aF196.9373006411869
aF173.63104771297597
aF227.80430687662002
aF126.52676309731805
aF289.8949755362608
aF301.3699725243691
aF201.58234826160296
aF157.3923297832742
aF145.12454857652702
aF300.71450844287597
aF217.92147501639712
assS'subclass_sl'
p529
(dp530
g12
(I11
I22
tp531
sg10
(I0
I11
tp532
ssS'norm'
p533
F1000000.0
sS'cls'
p534
(dp535
S'class'
p536
(S'post_stage0'
p537
S'post_stage0'
p538
S'post_stage0'
p539
S'post_stage0'
p540
S'post_stage0'
p541
S'post_stage0'
p542
S'post_stage0'
p543
S'post_stage0'
p544
S'post_stage0'
p545
S'post_stage0'
p546
g3
S'pre_stage0'
p547
S'pre_stage0'
p548
S'pre_stage0'
p549
S'pre_stage0'
p550
S'pre_stage0'
p551
S'pre_stage0'
p552
S'pre_stage0'
p553
S'pre_stage0'
p554
S'pre_stage0'
p555
S'pre_stage0'
p556
g5
tp557
sS'subclass'
p558
(lp559
S'post_stage0_subcl'
p560
aS'post_stage0_subcl'
p561
aS'post_stage0_subcl'
p562
aS'post_stage0_subcl'
p563
aS'post_stage0_subcl'
p564
aS'post_stage0_subcl'
p565
aS'post_stage0_subcl'
p566
aS'post_stage0_subcl'
p567
aS'post_stage0_subcl'
p568
aS'post_stage0_subcl'
p569
ag10
aS'pre_stage0_subcl'
p570
aS'pre_stage0_subcl'
p571
aS'pre_stage0_subcl'
p572
aS'pre_stage0_subcl'
p573
aS'pre_stage0_subcl'
p574
aS'pre_stage0_subcl'
p575
aS'pre_stage0_subcl'
p576
aS'pre_stage0_subcl'
p577
aS'pre_stage0_subcl'
p578
aS'pre_stage0_subcl'
p579
ag12
asS'subject'
p580
(S'10140.2'
p581
S'10165.2'
p582
S'10338.2'
p583
S'10345.2'
p584
S'10366.2'
p585
S'10385.2'
p586
S'10545.2'
p587
S'10565.2'
p588
S'10579.2'
p589
S'10596.2'
p590
S'10697.2'
p591
S'10140.1'
p592
S'10165.1'
p593
S'10338.1'
p594
S'10345.1'
p595
S'10366.1'
p596
S'10385.1'
p597
S'10545.1'
p598
S'10565.1'
p599
S'10579.1'
p600
S'10596.1'
p601
S'10697.1'
p602
tp603
ss.